

Microchip MPLAB XC8 Assembler V2.50 build 20240725155939 
                                                                                               Fri Nov 01 19:11:36 2024

Microchip MPLAB XC8 C Compiler v2.50 (Free license) build 20240725155939 Og1 
     1                           	processor	16F877A
     2                           	pagewidth 120
     3                           	opt	flic
     4                           	psect	idataBANK0,global,class=CODE,space=0,delta=2,noexec
     5                           	psect	idataBANK1,global,class=CODE,space=0,delta=2,noexec
     6                           	psect	strings,global,class=STRING,space=0,delta=2,noexec
     7                           	psect	stringtext,global,reloc=256,class=STRCODE,space=0,delta=2,noexec
     8                           	psect	cinit,global,class=CODE,space=0,merge=1,delta=2
     9                           	psect	bssCOMMON,global,class=COMMON,space=1,delta=1,noexec
    10                           	psect	bssBANK0,global,class=BANK0,space=1,delta=1,noexec
    11                           	psect	dataBANK0,global,class=BANK0,space=1,delta=1,noexec
    12                           	psect	bssBANK1,global,class=BANK1,space=1,delta=1,noexec
    13                           	psect	dataBANK1,global,class=BANK1,space=1,delta=1,noexec
    14                           	psect	inittext,global,class=CODE,space=0,delta=2
    15                           	psect	clrtext,global,class=CODE,space=0,delta=2
    16                           	psect	cstackBANK1,global,class=BANK1,space=1,delta=1,noexec
    17                           	psect	cstackCOMMON,global,class=COMMON,space=1,delta=1,noexec
    18                           	psect	cstackBANK0,global,class=BANK0,space=1,delta=1,noexec
    19                           	psect	maintext,global,class=CODE,space=0,split=1,delta=2
    20                           	psect	text1,local,class=CODE,space=0,merge=1,delta=2
    21                           	psect	text2,local,class=CODE,space=0,merge=1,delta=2,group=2
    22                           	psect	text3,local,class=CODE,space=0,merge=1,delta=2
    23                           	psect	text4,local,class=CODE,space=0,merge=1,delta=2
    24                           	psect	text5,local,class=CODE,space=0,merge=1,delta=2
    25                           	psect	text6,local,class=CODE,space=0,merge=1,delta=2
    26                           	psect	text7,local,class=CODE,space=0,merge=1,delta=2
    27                           	psect	text8,local,class=CODE,space=0,merge=1,delta=2
    28                           	psect	text9,local,class=CODE,space=0,merge=1,delta=2
    29                           	psect	text10,local,class=CODE,space=0,merge=1,delta=2
    30                           	psect	text11,local,class=CODE,space=0,merge=1,delta=2
    31                           	psect	text12,local,class=CODE,space=0,merge=1,delta=2
    32                           	psect	text13,local,class=CODE,space=0,merge=1,delta=2
    33                           	psect	text14,local,class=CODE,space=0,merge=1,delta=2,group=1
    34                           	psect	text15,local,class=CODE,space=0,merge=1,delta=2
    35                           	psect	text16,local,class=CODE,space=0,merge=1,delta=2
    36                           	psect	text17,local,class=CODE,space=0,merge=1,delta=2
    37                           	psect	text18,local,class=CODE,space=0,merge=1,delta=2
    38                           	psect	text19,local,class=CODE,space=0,merge=1,delta=2
    39                           	psect	text20,local,class=CODE,space=0,merge=1,delta=2
    40                           	psect	text21,local,class=CODE,space=0,merge=1,delta=2
    41                           	psect	text22,local,class=CODE,space=0,merge=1,delta=2
    42                           	psect	text23,local,class=CODE,space=0,merge=1,delta=2
    43                           	psect	text24,local,class=CODE,space=0,merge=1,delta=2,group=1
    44                           	psect	text25,local,class=CODE,space=0,merge=1,delta=2
    45                           	psect	text26,local,class=CODE,space=0,merge=1,delta=2
    46                           	psect	text27,local,class=CODE,space=0,merge=1,delta=2,group=1
    47                           	psect	text28,local,class=CODE,space=0,merge=1,delta=2,group=1
    48                           	psect	text29,local,class=CODE,space=0,merge=1,delta=2
    49                           	psect	text30,local,class=CODE,space=0,merge=1,delta=2
    50                           	psect	text31,local,class=CODE,space=0,merge=1,delta=2
    51                           	psect	text32,local,class=CODE,space=0,merge=1,delta=2
    52                           	psect	text33,local,class=CODE,space=0,merge=1,delta=2
    53                           	psect	text34,local,class=CODE,space=0,merge=1,delta=2
    54                           	psect	text35,local,class=CODE,space=0,merge=1,delta=2
    55                           	psect	text36,local,class=CODE,space=0,merge=1,delta=2,group=1
    56                           	psect	text37,local,class=CODE,space=0,merge=1,delta=2,group=1
    57                           	psect	text38,local,class=CODE,space=0,merge=1,delta=2,group=1
    58                           	psect	text39,local,class=CODE,space=0,merge=1,delta=2
    59                           	psect	text40,local,class=CODE,space=0,merge=1,delta=2,group=2
    60                           	psect	text41,local,class=CODE,space=0,merge=1,delta=2,group=2
    61                           	psect	text42,local,class=CODE,space=0,merge=1,delta=2
    62                           	psect	text43,local,class=CODE,space=0,merge=1,delta=2
    63                           	psect	text44,local,class=CODE,space=0,merge=1,delta=2
    64                           	psect	text45,local,class=CODE,space=0,merge=1,delta=2
    65                           	psect	text46,local,class=CODE,space=0,merge=1,delta=2
    66                           	psect	text47,local,class=CODE,space=0,merge=1,delta=2
    67                           	psect	text48,local,class=CODE,space=0,merge=1,delta=2
    68                           	psect	text49,local,class=CODE,space=0,merge=1,delta=2
    69                           	psect	text50,local,class=CODE,space=0,merge=1,delta=2
    70                           	psect	text51,local,class=CODE,space=0,merge=1,delta=2
    71                           	psect	intentry,global,class=CODE,space=0,delta=2
    72                           	psect	idloc,global,abs,ovrld,class=IDLOC,space=5,delta=2,noexec
    73                           	psect	config,global,abs,ovrld,class=CONFIG,space=4,delta=2,noexec
    74                           	dabs	1,0x7E,2
    75     0000                     
    76                           ; Generated 25/07/2024 GMT
    77                           ; 
    78                           ; Copyright © 2024, Microchip Technology Inc. and its subsidiaries ("Microchip")
    79                           ; All rights reserved.
    80                           ; 
    81                           ; This software is developed by Microchip Technology Inc. and its subsidiaries ("Microch
      +                          ip").
    82                           ; 
    83                           ; Redistribution and use in source and binary forms, with or without modification, are
    84                           ; permitted provided that the following conditions are met:
    85                           ; 
    86                           ;     1. Redistributions of source code must retain the above copyright notice, this lis
      +                          t of
    87                           ;        conditions and the following disclaimer.
    88                           ; 
    89                           ;     2. Redistributions in binary form must reproduce the above copyright notice, this 
      +                          list
    90                           ;        of conditions and the following disclaimer in the documentation and/or other
    91                           ;        materials provided with the distribution. Publication is not required when
    92                           ;        this file is used in an embedded application.
    93                           ; 
    94                           ;     3. Microchip's name may not be used to endorse or promote products derived from th
      +                          is
    95                           ;        software without specific prior written permission.
    96                           ; 
    97                           ; THIS SOFTWARE IS PROVIDED BY MICROCHIP "AS IS" AND ANY EXPRESS OR IMPLIED WARRANTIES,
    98                           ; INCLUDING, BUT NOT LIMITED TO, THE IMPLIED WARRANTIES OF MERCHANTABILITY AND FITNESS F
      +                          OR
    99                           ; PURPOSE ARE DISCLAIMED.  IN NO EVENT SHALL MICROCHIP BE LIABLE FOR ANY DIRECT, INDIREC
      +                          T,
   100                           ; INCIDENTAL, SPECIAL, EXEMPLARY, OR CONSEQUENTIAL DAMAGES (INCLUDING BUT NOT LIMITED TO
   101                           ; PROCUREMENT OF SUBSTITUTE GOODS OR SERVICES; LOSS OF USE, DATA OR PROFITS; OR BUSINESS
   102                           ; INTERRUPTION) HOWSOEVER CAUSED AND ON ANY THEORY OF LIABILITY, WHETHER IN CONTRACT, ST
      +                          RICT
   103                           ; LIABILITY, OR TORT (INCLUDING NEGLIGENCE OR OTHERWISE) ARISING IN ANY WAY OUT OF THE U
      +                          SE OF
   104                           ; THIS SOFTWARE, EVEN IF ADVISED OF THE POSSIBILITY OF SUCH DAMAGE.
   105                           ; 
   106                           ; 
   107                           ; Code-generator required, PIC16F877A Definitions
   108                           ; 
   109                           ; SFR Addresses
   110     0004                     fsr             equ	4
   111     0004                     fsr0            equ	4
   112     0000                     indf            equ	0
   113     0000                     indf0           equ	0
   114     0002                     pc              equ	2
   115     0002                     pcl             equ	2
   116     000A                     pclath          equ	10
   117     0003                     status          equ	3
   118     0000                     INDF            equ	0	;# 
   119     0001                     TMR0            equ	1	;# 
   120     0002                     PCL             equ	2	;# 
   121     0003                     STATUS          equ	3	;# 
   122     0004                     FSR             equ	4	;# 
   123     0005                     PORTA           equ	5	;# 
   124     0006                     PORTB           equ	6	;# 
   125     0007                     PORTC           equ	7	;# 
   126     0008                     PORTD           equ	8	;# 
   127     0009                     PORTE           equ	9	;# 
   128     000A                     PCLATH          equ	10	;# 
   129     000B                     INTCON          equ	11	;# 
   130     000C                     PIR1            equ	12	;# 
   131     000D                     PIR2            equ	13	;# 
   132     000E                     TMR1            equ	14	;# 
   133     000E                     TMR1L           equ	14	;# 
   134     000F                     TMR1H           equ	15	;# 
   135     0010                     T1CON           equ	16	;# 
   136     0011                     TMR2            equ	17	;# 
   137     0012                     T2CON           equ	18	;# 
   138     0013                     SSPBUF          equ	19	;# 
   139     0014                     SSPCON          equ	20	;# 
   140     0015                     CCPR1           equ	21	;# 
   141     0015                     CCPR1L          equ	21	;# 
   142     0016                     CCPR1H          equ	22	;# 
   143     0017                     CCP1CON         equ	23	;# 
   144     0018                     RCSTA           equ	24	;# 
   145     0019                     TXREG           equ	25	;# 
   146     001A                     RCREG           equ	26	;# 
   147     001B                     CCPR2           equ	27	;# 
   148     001B                     CCPR2L          equ	27	;# 
   149     001C                     CCPR2H          equ	28	;# 
   150     001D                     CCP2CON         equ	29	;# 
   151     001E                     ADRESH          equ	30	;# 
   152     001F                     ADCON0          equ	31	;# 
   153     0081                     OPTION_REG      equ	129	;# 
   154     0085                     TRISA           equ	133	;# 
   155     0086                     TRISB           equ	134	;# 
   156     0087                     TRISC           equ	135	;# 
   157     0088                     TRISD           equ	136	;# 
   158     0089                     TRISE           equ	137	;# 
   159     008C                     PIE1            equ	140	;# 
   160     008D                     PIE2            equ	141	;# 
   161     008E                     PCON            equ	142	;# 
   162     0091                     SSPCON2         equ	145	;# 
   163     0092                     PR2             equ	146	;# 
   164     0093                     SSPADD          equ	147	;# 
   165     0094                     SSPSTAT         equ	148	;# 
   166     0098                     TXSTA           equ	152	;# 
   167     0099                     SPBRG           equ	153	;# 
   168     009C                     CMCON           equ	156	;# 
   169     009D                     CVRCON          equ	157	;# 
   170     009E                     ADRESL          equ	158	;# 
   171     009F                     ADCON1          equ	159	;# 
   172     010C                     EEDATA          equ	268	;# 
   173     010D                     EEADR           equ	269	;# 
   174     010E                     EEDATH          equ	270	;# 
   175     010F                     EEADRH          equ	271	;# 
   176     018C                     EECON1          equ	396	;# 
   177     018D                     EECON2          equ	397	;# 
   178     0000                     INDF            equ	0	;# 
   179     0001                     TMR0            equ	1	;# 
   180     0002                     PCL             equ	2	;# 
   181     0003                     STATUS          equ	3	;# 
   182     0004                     FSR             equ	4	;# 
   183     0005                     PORTA           equ	5	;# 
   184     0006                     PORTB           equ	6	;# 
   185     0007                     PORTC           equ	7	;# 
   186     0008                     PORTD           equ	8	;# 
   187     0009                     PORTE           equ	9	;# 
   188     000A                     PCLATH          equ	10	;# 
   189     000B                     INTCON          equ	11	;# 
   190     000C                     PIR1            equ	12	;# 
   191     000D                     PIR2            equ	13	;# 
   192     000E                     TMR1            equ	14	;# 
   193     000E                     TMR1L           equ	14	;# 
   194     000F                     TMR1H           equ	15	;# 
   195     0010                     T1CON           equ	16	;# 
   196     0011                     TMR2            equ	17	;# 
   197     0012                     T2CON           equ	18	;# 
   198     0013                     SSPBUF          equ	19	;# 
   199     0014                     SSPCON          equ	20	;# 
   200     0015                     CCPR1           equ	21	;# 
   201     0015                     CCPR1L          equ	21	;# 
   202     0016                     CCPR1H          equ	22	;# 
   203     0017                     CCP1CON         equ	23	;# 
   204     0018                     RCSTA           equ	24	;# 
   205     0019                     TXREG           equ	25	;# 
   206     001A                     RCREG           equ	26	;# 
   207     001B                     CCPR2           equ	27	;# 
   208     001B                     CCPR2L          equ	27	;# 
   209     001C                     CCPR2H          equ	28	;# 
   210     001D                     CCP2CON         equ	29	;# 
   211     001E                     ADRESH          equ	30	;# 
   212     001F                     ADCON0          equ	31	;# 
   213     0081                     OPTION_REG      equ	129	;# 
   214     0085                     TRISA           equ	133	;# 
   215     0086                     TRISB           equ	134	;# 
   216     0087                     TRISC           equ	135	;# 
   217     0088                     TRISD           equ	136	;# 
   218     0089                     TRISE           equ	137	;# 
   219     008C                     PIE1            equ	140	;# 
   220     008D                     PIE2            equ	141	;# 
   221     008E                     PCON            equ	142	;# 
   222     0091                     SSPCON2         equ	145	;# 
   223     0092                     PR2             equ	146	;# 
   224     0093                     SSPADD          equ	147	;# 
   225     0094                     SSPSTAT         equ	148	;# 
   226     0098                     TXSTA           equ	152	;# 
   227     0099                     SPBRG           equ	153	;# 
   228     009C                     CMCON           equ	156	;# 
   229     009D                     CVRCON          equ	157	;# 
   230     009E                     ADRESL          equ	158	;# 
   231     009F                     ADCON1          equ	159	;# 
   232     010C                     EEDATA          equ	268	;# 
   233     010D                     EEADR           equ	269	;# 
   234     010E                     EEDATH          equ	270	;# 
   235     010F                     EEADRH          equ	271	;# 
   236     018C                     EECON1          equ	396	;# 
   237     018D                     EECON2          equ	397	;# 
   238     0000                     INDF            equ	0	;# 
   239     0001                     TMR0            equ	1	;# 
   240     0002                     PCL             equ	2	;# 
   241     0003                     STATUS          equ	3	;# 
   242     0004                     FSR             equ	4	;# 
   243     0005                     PORTA           equ	5	;# 
   244     0006                     PORTB           equ	6	;# 
   245     0007                     PORTC           equ	7	;# 
   246     0008                     PORTD           equ	8	;# 
   247     0009                     PORTE           equ	9	;# 
   248     000A                     PCLATH          equ	10	;# 
   249     000B                     INTCON          equ	11	;# 
   250     000C                     PIR1            equ	12	;# 
   251     000D                     PIR2            equ	13	;# 
   252     000E                     TMR1            equ	14	;# 
   253     000E                     TMR1L           equ	14	;# 
   254     000F                     TMR1H           equ	15	;# 
   255     0010                     T1CON           equ	16	;# 
   256     0011                     TMR2            equ	17	;# 
   257     0012                     T2CON           equ	18	;# 
   258     0013                     SSPBUF          equ	19	;# 
   259     0014                     SSPCON          equ	20	;# 
   260     0015                     CCPR1           equ	21	;# 
   261     0015                     CCPR1L          equ	21	;# 
   262     0016                     CCPR1H          equ	22	;# 
   263     0017                     CCP1CON         equ	23	;# 
   264     0018                     RCSTA           equ	24	;# 
   265     0019                     TXREG           equ	25	;# 
   266     001A                     RCREG           equ	26	;# 
   267     001B                     CCPR2           equ	27	;# 
   268     001B                     CCPR2L          equ	27	;# 
   269     001C                     CCPR2H          equ	28	;# 
   270     001D                     CCP2CON         equ	29	;# 
   271     001E                     ADRESH          equ	30	;# 
   272     001F                     ADCON0          equ	31	;# 
   273     0081                     OPTION_REG      equ	129	;# 
   274     0085                     TRISA           equ	133	;# 
   275     0086                     TRISB           equ	134	;# 
   276     0087                     TRISC           equ	135	;# 
   277     0088                     TRISD           equ	136	;# 
   278     0089                     TRISE           equ	137	;# 
   279     008C                     PIE1            equ	140	;# 
   280     008D                     PIE2            equ	141	;# 
   281     008E                     PCON            equ	142	;# 
   282     0091                     SSPCON2         equ	145	;# 
   283     0092                     PR2             equ	146	;# 
   284     0093                     SSPADD          equ	147	;# 
   285     0094                     SSPSTAT         equ	148	;# 
   286     0098                     TXSTA           equ	152	;# 
   287     0099                     SPBRG           equ	153	;# 
   288     009C                     CMCON           equ	156	;# 
   289     009D                     CVRCON          equ	157	;# 
   290     009E                     ADRESL          equ	158	;# 
   291     009F                     ADCON1          equ	159	;# 
   292     010C                     EEDATA          equ	268	;# 
   293     010D                     EEADR           equ	269	;# 
   294     010E                     EEDATH          equ	270	;# 
   295     010F                     EEADRH          equ	271	;# 
   296     018C                     EECON1          equ	396	;# 
   297     018D                     EECON2          equ	397	;# 
   298     0000                     INDF            equ	0	;# 
   299     0001                     TMR0            equ	1	;# 
   300     0002                     PCL             equ	2	;# 
   301     0003                     STATUS          equ	3	;# 
   302     0004                     FSR             equ	4	;# 
   303     0005                     PORTA           equ	5	;# 
   304     0006                     PORTB           equ	6	;# 
   305     0007                     PORTC           equ	7	;# 
   306     0008                     PORTD           equ	8	;# 
   307     0009                     PORTE           equ	9	;# 
   308     000A                     PCLATH          equ	10	;# 
   309     000B                     INTCON          equ	11	;# 
   310     000C                     PIR1            equ	12	;# 
   311     000D                     PIR2            equ	13	;# 
   312     000E                     TMR1            equ	14	;# 
   313     000E                     TMR1L           equ	14	;# 
   314     000F                     TMR1H           equ	15	;# 
   315     0010                     T1CON           equ	16	;# 
   316     0011                     TMR2            equ	17	;# 
   317     0012                     T2CON           equ	18	;# 
   318     0013                     SSPBUF          equ	19	;# 
   319     0014                     SSPCON          equ	20	;# 
   320     0015                     CCPR1           equ	21	;# 
   321     0015                     CCPR1L          equ	21	;# 
   322     0016                     CCPR1H          equ	22	;# 
   323     0017                     CCP1CON         equ	23	;# 
   324     0018                     RCSTA           equ	24	;# 
   325     0019                     TXREG           equ	25	;# 
   326     001A                     RCREG           equ	26	;# 
   327     001B                     CCPR2           equ	27	;# 
   328     001B                     CCPR2L          equ	27	;# 
   329     001C                     CCPR2H          equ	28	;# 
   330     001D                     CCP2CON         equ	29	;# 
   331     001E                     ADRESH          equ	30	;# 
   332     001F                     ADCON0          equ	31	;# 
   333     0081                     OPTION_REG      equ	129	;# 
   334     0085                     TRISA           equ	133	;# 
   335     0086                     TRISB           equ	134	;# 
   336     0087                     TRISC           equ	135	;# 
   337     0088                     TRISD           equ	136	;# 
   338     0089                     TRISE           equ	137	;# 
   339     008C                     PIE1            equ	140	;# 
   340     008D                     PIE2            equ	141	;# 
   341     008E                     PCON            equ	142	;# 
   342     0091                     SSPCON2         equ	145	;# 
   343     0092                     PR2             equ	146	;# 
   344     0093                     SSPADD          equ	147	;# 
   345     0094                     SSPSTAT         equ	148	;# 
   346     0098                     TXSTA           equ	152	;# 
   347     0099                     SPBRG           equ	153	;# 
   348     009C                     CMCON           equ	156	;# 
   349     009D                     CVRCON          equ	157	;# 
   350     009E                     ADRESL          equ	158	;# 
   351     009F                     ADCON1          equ	159	;# 
   352     010C                     EEDATA          equ	268	;# 
   353     010D                     EEADR           equ	269	;# 
   354     010E                     EEDATH          equ	270	;# 
   355     010F                     EEADRH          equ	271	;# 
   356     018C                     EECON1          equ	396	;# 
   357     018D                     EECON2          equ	397	;# 
   358     0000                     INDF            equ	0	;# 
   359     0001                     TMR0            equ	1	;# 
   360     0002                     PCL             equ	2	;# 
   361     0003                     STATUS          equ	3	;# 
   362     0004                     FSR             equ	4	;# 
   363     0005                     PORTA           equ	5	;# 
   364     0006                     PORTB           equ	6	;# 
   365     0007                     PORTC           equ	7	;# 
   366     0008                     PORTD           equ	8	;# 
   367     0009                     PORTE           equ	9	;# 
   368     000A                     PCLATH          equ	10	;# 
   369     000B                     INTCON          equ	11	;# 
   370     000C                     PIR1            equ	12	;# 
   371     000D                     PIR2            equ	13	;# 
   372     000E                     TMR1            equ	14	;# 
   373     000E                     TMR1L           equ	14	;# 
   374     000F                     TMR1H           equ	15	;# 
   375     0010                     T1CON           equ	16	;# 
   376     0011                     TMR2            equ	17	;# 
   377     0012                     T2CON           equ	18	;# 
   378     0013                     SSPBUF          equ	19	;# 
   379     0014                     SSPCON          equ	20	;# 
   380     0015                     CCPR1           equ	21	;# 
   381     0015                     CCPR1L          equ	21	;# 
   382     0016                     CCPR1H          equ	22	;# 
   383     0017                     CCP1CON         equ	23	;# 
   384     0018                     RCSTA           equ	24	;# 
   385     0019                     TXREG           equ	25	;# 
   386     001A                     RCREG           equ	26	;# 
   387     001B                     CCPR2           equ	27	;# 
   388     001B                     CCPR2L          equ	27	;# 
   389     001C                     CCPR2H          equ	28	;# 
   390     001D                     CCP2CON         equ	29	;# 
   391     001E                     ADRESH          equ	30	;# 
   392     001F                     ADCON0          equ	31	;# 
   393     0081                     OPTION_REG      equ	129	;# 
   394     0085                     TRISA           equ	133	;# 
   395     0086                     TRISB           equ	134	;# 
   396     0087                     TRISC           equ	135	;# 
   397     0088                     TRISD           equ	136	;# 
   398     0089                     TRISE           equ	137	;# 
   399     008C                     PIE1            equ	140	;# 
   400     008D                     PIE2            equ	141	;# 
   401     008E                     PCON            equ	142	;# 
   402     0091                     SSPCON2         equ	145	;# 
   403     0092                     PR2             equ	146	;# 
   404     0093                     SSPADD          equ	147	;# 
   405     0094                     SSPSTAT         equ	148	;# 
   406     0098                     TXSTA           equ	152	;# 
   407     0099                     SPBRG           equ	153	;# 
   408     009C                     CMCON           equ	156	;# 
   409     009D                     CVRCON          equ	157	;# 
   410     009E                     ADRESL          equ	158	;# 
   411     009F                     ADCON1          equ	159	;# 
   412     010C                     EEDATA          equ	268	;# 
   413     010D                     EEADR           equ	269	;# 
   414     010E                     EEDATH          equ	270	;# 
   415     010F                     EEADRH          equ	271	;# 
   416     018C                     EECON1          equ	396	;# 
   417     018D                     EECON2          equ	397	;# 
   418     0000                     INDF            equ	0	;# 
   419     0001                     TMR0            equ	1	;# 
   420     0002                     PCL             equ	2	;# 
   421     0003                     STATUS          equ	3	;# 
   422     0004                     FSR             equ	4	;# 
   423     0005                     PORTA           equ	5	;# 
   424     0006                     PORTB           equ	6	;# 
   425     0007                     PORTC           equ	7	;# 
   426     0008                     PORTD           equ	8	;# 
   427     0009                     PORTE           equ	9	;# 
   428     000A                     PCLATH          equ	10	;# 
   429     000B                     INTCON          equ	11	;# 
   430     000C                     PIR1            equ	12	;# 
   431     000D                     PIR2            equ	13	;# 
   432     000E                     TMR1            equ	14	;# 
   433     000E                     TMR1L           equ	14	;# 
   434     000F                     TMR1H           equ	15	;# 
   435     0010                     T1CON           equ	16	;# 
   436     0011                     TMR2            equ	17	;# 
   437     0012                     T2CON           equ	18	;# 
   438     0013                     SSPBUF          equ	19	;# 
   439     0014                     SSPCON          equ	20	;# 
   440     0015                     CCPR1           equ	21	;# 
   441     0015                     CCPR1L          equ	21	;# 
   442     0016                     CCPR1H          equ	22	;# 
   443     0017                     CCP1CON         equ	23	;# 
   444     0018                     RCSTA           equ	24	;# 
   445     0019                     TXREG           equ	25	;# 
   446     001A                     RCREG           equ	26	;# 
   447     001B                     CCPR2           equ	27	;# 
   448     001B                     CCPR2L          equ	27	;# 
   449     001C                     CCPR2H          equ	28	;# 
   450     001D                     CCP2CON         equ	29	;# 
   451     001E                     ADRESH          equ	30	;# 
   452     001F                     ADCON0          equ	31	;# 
   453     0081                     OPTION_REG      equ	129	;# 
   454     0085                     TRISA           equ	133	;# 
   455     0086                     TRISB           equ	134	;# 
   456     0087                     TRISC           equ	135	;# 
   457     0088                     TRISD           equ	136	;# 
   458     0089                     TRISE           equ	137	;# 
   459     008C                     PIE1            equ	140	;# 
   460     008D                     PIE2            equ	141	;# 
   461     008E                     PCON            equ	142	;# 
   462     0091                     SSPCON2         equ	145	;# 
   463     0092                     PR2             equ	146	;# 
   464     0093                     SSPADD          equ	147	;# 
   465     0094                     SSPSTAT         equ	148	;# 
   466     0098                     TXSTA           equ	152	;# 
   467     0099                     SPBRG           equ	153	;# 
   468     009C                     CMCON           equ	156	;# 
   469     009D                     CVRCON          equ	157	;# 
   470     009E                     ADRESL          equ	158	;# 
   471     009F                     ADCON1          equ	159	;# 
   472     010C                     EEDATA          equ	268	;# 
   473     010D                     EEADR           equ	269	;# 
   474     010E                     EEDATH          equ	270	;# 
   475     010F                     EEADRH          equ	271	;# 
   476     018C                     EECON1          equ	396	;# 
   477     018D                     EECON2          equ	397	;# 
   478     0000                     INDF            equ	0	;# 
   479     0001                     TMR0            equ	1	;# 
   480     0002                     PCL             equ	2	;# 
   481     0003                     STATUS          equ	3	;# 
   482     0004                     FSR             equ	4	;# 
   483     0005                     PORTA           equ	5	;# 
   484     0006                     PORTB           equ	6	;# 
   485     0007                     PORTC           equ	7	;# 
   486     0008                     PORTD           equ	8	;# 
   487     0009                     PORTE           equ	9	;# 
   488     000A                     PCLATH          equ	10	;# 
   489     000B                     INTCON          equ	11	;# 
   490     000C                     PIR1            equ	12	;# 
   491     000D                     PIR2            equ	13	;# 
   492     000E                     TMR1            equ	14	;# 
   493     000E                     TMR1L           equ	14	;# 
   494     000F                     TMR1H           equ	15	;# 
   495     0010                     T1CON           equ	16	;# 
   496     0011                     TMR2            equ	17	;# 
   497     0012                     T2CON           equ	18	;# 
   498     0013                     SSPBUF          equ	19	;# 
   499     0014                     SSPCON          equ	20	;# 
   500     0015                     CCPR1           equ	21	;# 
   501     0015                     CCPR1L          equ	21	;# 
   502     0016                     CCPR1H          equ	22	;# 
   503     0017                     CCP1CON         equ	23	;# 
   504     0018                     RCSTA           equ	24	;# 
   505     0019                     TXREG           equ	25	;# 
   506     001A                     RCREG           equ	26	;# 
   507     001B                     CCPR2           equ	27	;# 
   508     001B                     CCPR2L          equ	27	;# 
   509     001C                     CCPR2H          equ	28	;# 
   510     001D                     CCP2CON         equ	29	;# 
   511     001E                     ADRESH          equ	30	;# 
   512     001F                     ADCON0          equ	31	;# 
   513     0081                     OPTION_REG      equ	129	;# 
   514     0085                     TRISA           equ	133	;# 
   515     0086                     TRISB           equ	134	;# 
   516     0087                     TRISC           equ	135	;# 
   517     0088                     TRISD           equ	136	;# 
   518     0089                     TRISE           equ	137	;# 
   519     008C                     PIE1            equ	140	;# 
   520     008D                     PIE2            equ	141	;# 
   521     008E                     PCON            equ	142	;# 
   522     0091                     SSPCON2         equ	145	;# 
   523     0092                     PR2             equ	146	;# 
   524     0093                     SSPADD          equ	147	;# 
   525     0094                     SSPSTAT         equ	148	;# 
   526     0098                     TXSTA           equ	152	;# 
   527     0099                     SPBRG           equ	153	;# 
   528     009C                     CMCON           equ	156	;# 
   529     009D                     CVRCON          equ	157	;# 
   530     009E                     ADRESL          equ	158	;# 
   531     009F                     ADCON1          equ	159	;# 
   532     010C                     EEDATA          equ	268	;# 
   533     010D                     EEADR           equ	269	;# 
   534     010E                     EEDATH          equ	270	;# 
   535     010F                     EEADRH          equ	271	;# 
   536     018C                     EECON1          equ	396	;# 
   537     018D                     EECON2          equ	397	;# 
   538     0000                     INDF            equ	0	;# 
   539     0001                     TMR0            equ	1	;# 
   540     0002                     PCL             equ	2	;# 
   541     0003                     STATUS          equ	3	;# 
   542     0004                     FSR             equ	4	;# 
   543     0005                     PORTA           equ	5	;# 
   544     0006                     PORTB           equ	6	;# 
   545     0007                     PORTC           equ	7	;# 
   546     0008                     PORTD           equ	8	;# 
   547     0009                     PORTE           equ	9	;# 
   548     000A                     PCLATH          equ	10	;# 
   549     000B                     INTCON          equ	11	;# 
   550     000C                     PIR1            equ	12	;# 
   551     000D                     PIR2            equ	13	;# 
   552     000E                     TMR1            equ	14	;# 
   553     000E                     TMR1L           equ	14	;# 
   554     000F                     TMR1H           equ	15	;# 
   555     0010                     T1CON           equ	16	;# 
   556     0011                     TMR2            equ	17	;# 
   557     0012                     T2CON           equ	18	;# 
   558     0013                     SSPBUF          equ	19	;# 
   559     0014                     SSPCON          equ	20	;# 
   560     0015                     CCPR1           equ	21	;# 
   561     0015                     CCPR1L          equ	21	;# 
   562     0016                     CCPR1H          equ	22	;# 
   563     0017                     CCP1CON         equ	23	;# 
   564     0018                     RCSTA           equ	24	;# 
   565     0019                     TXREG           equ	25	;# 
   566     001A                     RCREG           equ	26	;# 
   567     001B                     CCPR2           equ	27	;# 
   568     001B                     CCPR2L          equ	27	;# 
   569     001C                     CCPR2H          equ	28	;# 
   570     001D                     CCP2CON         equ	29	;# 
   571     001E                     ADRESH          equ	30	;# 
   572     001F                     ADCON0          equ	31	;# 
   573     0081                     OPTION_REG      equ	129	;# 
   574     0085                     TRISA           equ	133	;# 
   575     0086                     TRISB           equ	134	;# 
   576     0087                     TRISC           equ	135	;# 
   577     0088                     TRISD           equ	136	;# 
   578     0089                     TRISE           equ	137	;# 
   579     008C                     PIE1            equ	140	;# 
   580     008D                     PIE2            equ	141	;# 
   581     008E                     PCON            equ	142	;# 
   582     0091                     SSPCON2         equ	145	;# 
   583     0092                     PR2             equ	146	;# 
   584     0093                     SSPADD          equ	147	;# 
   585     0094                     SSPSTAT         equ	148	;# 
   586     0098                     TXSTA           equ	152	;# 
   587     0099                     SPBRG           equ	153	;# 
   588     009C                     CMCON           equ	156	;# 
   589     009D                     CVRCON          equ	157	;# 
   590     009E                     ADRESL          equ	158	;# 
   591     009F                     ADCON1          equ	159	;# 
   592     010C                     EEDATA          equ	268	;# 
   593     010D                     EEADR           equ	269	;# 
   594     010E                     EEDATH          equ	270	;# 
   595     010F                     EEADRH          equ	271	;# 
   596     018C                     EECON1          equ	396	;# 
   597     018D                     EECON2          equ	397	;# 
   598     0000                     INDF            equ	0	;# 
   599     0001                     TMR0            equ	1	;# 
   600     0002                     PCL             equ	2	;# 
   601     0003                     STATUS          equ	3	;# 
   602     0004                     FSR             equ	4	;# 
   603     0005                     PORTA           equ	5	;# 
   604     0006                     PORTB           equ	6	;# 
   605     0007                     PORTC           equ	7	;# 
   606     0008                     PORTD           equ	8	;# 
   607     0009                     PORTE           equ	9	;# 
   608     000A                     PCLATH          equ	10	;# 
   609     000B                     INTCON          equ	11	;# 
   610     000C                     PIR1            equ	12	;# 
   611     000D                     PIR2            equ	13	;# 
   612     000E                     TMR1            equ	14	;# 
   613     000E                     TMR1L           equ	14	;# 
   614     000F                     TMR1H           equ	15	;# 
   615     0010                     T1CON           equ	16	;# 
   616     0011                     TMR2            equ	17	;# 
   617     0012                     T2CON           equ	18	;# 
   618     0013                     SSPBUF          equ	19	;# 
   619     0014                     SSPCON          equ	20	;# 
   620     0015                     CCPR1           equ	21	;# 
   621     0015                     CCPR1L          equ	21	;# 
   622     0016                     CCPR1H          equ	22	;# 
   623     0017                     CCP1CON         equ	23	;# 
   624     0018                     RCSTA           equ	24	;# 
   625     0019                     TXREG           equ	25	;# 
   626     001A                     RCREG           equ	26	;# 
   627     001B                     CCPR2           equ	27	;# 
   628     001B                     CCPR2L          equ	27	;# 
   629     001C                     CCPR2H          equ	28	;# 
   630     001D                     CCP2CON         equ	29	;# 
   631     001E                     ADRESH          equ	30	;# 
   632     001F                     ADCON0          equ	31	;# 
   633     0081                     OPTION_REG      equ	129	;# 
   634     0085                     TRISA           equ	133	;# 
   635     0086                     TRISB           equ	134	;# 
   636     0087                     TRISC           equ	135	;# 
   637     0088                     TRISD           equ	136	;# 
   638     0089                     TRISE           equ	137	;# 
   639     008C                     PIE1            equ	140	;# 
   640     008D                     PIE2            equ	141	;# 
   641     008E                     PCON            equ	142	;# 
   642     0091                     SSPCON2         equ	145	;# 
   643     0092                     PR2             equ	146	;# 
   644     0093                     SSPADD          equ	147	;# 
   645     0094                     SSPSTAT         equ	148	;# 
   646     0098                     TXSTA           equ	152	;# 
   647     0099                     SPBRG           equ	153	;# 
   648     009C                     CMCON           equ	156	;# 
   649     009D                     CVRCON          equ	157	;# 
   650     009E                     ADRESL          equ	158	;# 
   651     009F                     ADCON1          equ	159	;# 
   652     010C                     EEDATA          equ	268	;# 
   653     010D                     EEADR           equ	269	;# 
   654     010E                     EEDATH          equ	270	;# 
   655     010F                     EEADRH          equ	271	;# 
   656     018C                     EECON1          equ	396	;# 
   657     018D                     EECON2          equ	397	;# 
   658     0000                     INDF            equ	0	;# 
   659     0001                     TMR0            equ	1	;# 
   660     0002                     PCL             equ	2	;# 
   661     0003                     STATUS          equ	3	;# 
   662     0004                     FSR             equ	4	;# 
   663     0005                     PORTA           equ	5	;# 
   664     0006                     PORTB           equ	6	;# 
   665     0007                     PORTC           equ	7	;# 
   666     0008                     PORTD           equ	8	;# 
   667     0009                     PORTE           equ	9	;# 
   668     000A                     PCLATH          equ	10	;# 
   669     000B                     INTCON          equ	11	;# 
   670     000C                     PIR1            equ	12	;# 
   671     000D                     PIR2            equ	13	;# 
   672     000E                     TMR1            equ	14	;# 
   673     000E                     TMR1L           equ	14	;# 
   674     000F                     TMR1H           equ	15	;# 
   675     0010                     T1CON           equ	16	;# 
   676     0011                     TMR2            equ	17	;# 
   677     0012                     T2CON           equ	18	;# 
   678     0013                     SSPBUF          equ	19	;# 
   679     0014                     SSPCON          equ	20	;# 
   680     0015                     CCPR1           equ	21	;# 
   681     0015                     CCPR1L          equ	21	;# 
   682     0016                     CCPR1H          equ	22	;# 
   683     0017                     CCP1CON         equ	23	;# 
   684     0018                     RCSTA           equ	24	;# 
   685     0019                     TXREG           equ	25	;# 
   686     001A                     RCREG           equ	26	;# 
   687     001B                     CCPR2           equ	27	;# 
   688     001B                     CCPR2L          equ	27	;# 
   689     001C                     CCPR2H          equ	28	;# 
   690     001D                     CCP2CON         equ	29	;# 
   691     001E                     ADRESH          equ	30	;# 
   692     001F                     ADCON0          equ	31	;# 
   693     0081                     OPTION_REG      equ	129	;# 
   694     0085                     TRISA           equ	133	;# 
   695     0086                     TRISB           equ	134	;# 
   696     0087                     TRISC           equ	135	;# 
   697     0088                     TRISD           equ	136	;# 
   698     0089                     TRISE           equ	137	;# 
   699     008C                     PIE1            equ	140	;# 
   700     008D                     PIE2            equ	141	;# 
   701     008E                     PCON            equ	142	;# 
   702     0091                     SSPCON2         equ	145	;# 
   703     0092                     PR2             equ	146	;# 
   704     0093                     SSPADD          equ	147	;# 
   705     0094                     SSPSTAT         equ	148	;# 
   706     0098                     TXSTA           equ	152	;# 
   707     0099                     SPBRG           equ	153	;# 
   708     009C                     CMCON           equ	156	;# 
   709     009D                     CVRCON          equ	157	;# 
   710     009E                     ADRESL          equ	158	;# 
   711     009F                     ADCON1          equ	159	;# 
   712     010C                     EEDATA          equ	268	;# 
   713     010D                     EEADR           equ	269	;# 
   714     010E                     EEDATH          equ	270	;# 
   715     010F                     EEADRH          equ	271	;# 
   716     018C                     EECON1          equ	396	;# 
   717     018D                     EECON2          equ	397	;# 
   718     0000                     INDF            equ	0	;# 
   719     0001                     TMR0            equ	1	;# 
   720     0002                     PCL             equ	2	;# 
   721     0003                     STATUS          equ	3	;# 
   722     0004                     FSR             equ	4	;# 
   723     0005                     PORTA           equ	5	;# 
   724     0006                     PORTB           equ	6	;# 
   725     0007                     PORTC           equ	7	;# 
   726     0008                     PORTD           equ	8	;# 
   727     0009                     PORTE           equ	9	;# 
   728     000A                     PCLATH          equ	10	;# 
   729     000B                     INTCON          equ	11	;# 
   730     000C                     PIR1            equ	12	;# 
   731     000D                     PIR2            equ	13	;# 
   732     000E                     TMR1            equ	14	;# 
   733     000E                     TMR1L           equ	14	;# 
   734     000F                     TMR1H           equ	15	;# 
   735     0010                     T1CON           equ	16	;# 
   736     0011                     TMR2            equ	17	;# 
   737     0012                     T2CON           equ	18	;# 
   738     0013                     SSPBUF          equ	19	;# 
   739     0014                     SSPCON          equ	20	;# 
   740     0015                     CCPR1           equ	21	;# 
   741     0015                     CCPR1L          equ	21	;# 
   742     0016                     CCPR1H          equ	22	;# 
   743     0017                     CCP1CON         equ	23	;# 
   744     0018                     RCSTA           equ	24	;# 
   745     0019                     TXREG           equ	25	;# 
   746     001A                     RCREG           equ	26	;# 
   747     001B                     CCPR2           equ	27	;# 
   748     001B                     CCPR2L          equ	27	;# 
   749     001C                     CCPR2H          equ	28	;# 
   750     001D                     CCP2CON         equ	29	;# 
   751     001E                     ADRESH          equ	30	;# 
   752     001F                     ADCON0          equ	31	;# 
   753     0081                     OPTION_REG      equ	129	;# 
   754     0085                     TRISA           equ	133	;# 
   755     0086                     TRISB           equ	134	;# 
   756     0087                     TRISC           equ	135	;# 
   757     0088                     TRISD           equ	136	;# 
   758     0089                     TRISE           equ	137	;# 
   759     008C                     PIE1            equ	140	;# 
   760     008D                     PIE2            equ	141	;# 
   761     008E                     PCON            equ	142	;# 
   762     0091                     SSPCON2         equ	145	;# 
   763     0092                     PR2             equ	146	;# 
   764     0093                     SSPADD          equ	147	;# 
   765     0094                     SSPSTAT         equ	148	;# 
   766     0098                     TXSTA           equ	152	;# 
   767     0099                     SPBRG           equ	153	;# 
   768     009C                     CMCON           equ	156	;# 
   769     009D                     CVRCON          equ	157	;# 
   770     009E                     ADRESL          equ	158	;# 
   771     009F                     ADCON1          equ	159	;# 
   772     010C                     EEDATA          equ	268	;# 
   773     010D                     EEADR           equ	269	;# 
   774     010E                     EEDATH          equ	270	;# 
   775     010F                     EEADRH          equ	271	;# 
   776     018C                     EECON1          equ	396	;# 
   777     018D                     EECON2          equ	397	;# 
   778     0000                     INDF            equ	0	;# 
   779     0001                     TMR0            equ	1	;# 
   780     0002                     PCL             equ	2	;# 
   781     0003                     STATUS          equ	3	;# 
   782     0004                     FSR             equ	4	;# 
   783     0005                     PORTA           equ	5	;# 
   784     0006                     PORTB           equ	6	;# 
   785     0007                     PORTC           equ	7	;# 
   786     0008                     PORTD           equ	8	;# 
   787     0009                     PORTE           equ	9	;# 
   788     000A                     PCLATH          equ	10	;# 
   789     000B                     INTCON          equ	11	;# 
   790     000C                     PIR1            equ	12	;# 
   791     000D                     PIR2            equ	13	;# 
   792     000E                     TMR1            equ	14	;# 
   793     000E                     TMR1L           equ	14	;# 
   794     000F                     TMR1H           equ	15	;# 
   795     0010                     T1CON           equ	16	;# 
   796     0011                     TMR2            equ	17	;# 
   797     0012                     T2CON           equ	18	;# 
   798     0013                     SSPBUF          equ	19	;# 
   799     0014                     SSPCON          equ	20	;# 
   800     0015                     CCPR1           equ	21	;# 
   801     0015                     CCPR1L          equ	21	;# 
   802     0016                     CCPR1H          equ	22	;# 
   803     0017                     CCP1CON         equ	23	;# 
   804     0018                     RCSTA           equ	24	;# 
   805     0019                     TXREG           equ	25	;# 
   806     001A                     RCREG           equ	26	;# 
   807     001B                     CCPR2           equ	27	;# 
   808     001B                     CCPR2L          equ	27	;# 
   809     001C                     CCPR2H          equ	28	;# 
   810     001D                     CCP2CON         equ	29	;# 
   811     001E                     ADRESH          equ	30	;# 
   812     001F                     ADCON0          equ	31	;# 
   813     0081                     OPTION_REG      equ	129	;# 
   814     0085                     TRISA           equ	133	;# 
   815     0086                     TRISB           equ	134	;# 
   816     0087                     TRISC           equ	135	;# 
   817     0088                     TRISD           equ	136	;# 
   818     0089                     TRISE           equ	137	;# 
   819     008C                     PIE1            equ	140	;# 
   820     008D                     PIE2            equ	141	;# 
   821     008E                     PCON            equ	142	;# 
   822     0091                     SSPCON2         equ	145	;# 
   823     0092                     PR2             equ	146	;# 
   824     0093                     SSPADD          equ	147	;# 
   825     0094                     SSPSTAT         equ	148	;# 
   826     0098                     TXSTA           equ	152	;# 
   827     0099                     SPBRG           equ	153	;# 
   828     009C                     CMCON           equ	156	;# 
   829     009D                     CVRCON          equ	157	;# 
   830     009E                     ADRESL          equ	158	;# 
   831     009F                     ADCON1          equ	159	;# 
   832     010C                     EEDATA          equ	268	;# 
   833     010D                     EEADR           equ	269	;# 
   834     010E                     EEDATH          equ	270	;# 
   835     010F                     EEADRH          equ	271	;# 
   836     018C                     EECON1          equ	396	;# 
   837     018D                     EECON2          equ	397	;# 
   838                           
   839                           	psect	idataBANK0
   840     1138                     __pidataBANK0:
   841                           
   842                           ;initializer for _event_count
   843     1138  34FF               	retlw	255
   844     1139  34FF               	retlw	255
   845                           
   846                           ;initializer for _pos
   847     113A  34FF               	retlw	255
   848     113B  34FF               	retlw	255
   849                           
   850                           ;initializer for login@attempts_rem
   851     113C  3403               	retlw	3
   852                           
   853                           ;initializer for _return_time
   854     113D  3405               	retlw	5
   855                           
   856                           	psect	idataBANK1
   857     1215                     __pidataBANK1:
   858                           
   859                           ;initializer for _gear
   860     1215  34E4               	retlw	low (STR_1| (0+32768))
   861     1216  3488               	retlw	high (STR_1| (0+32768))
   862     1217  34ED               	retlw	low (STR_2| (0+32768))
   863     1218  3488               	retlw	high (STR_2| (0+32768))
   864     1219  34D2               	retlw	low (STR_3| (0+32768))
   865     121A  3488               	retlw	high (STR_3| (0+32768))
   866     121B  34D5               	retlw	low (STR_4| (0+32768))
   867     121C  3488               	retlw	high (STR_4| (0+32768))
   868     121D  34D8               	retlw	low (STR_5| (0+32768))
   869     121E  3488               	retlw	high (STR_5| (0+32768))
   870     121F  34DB               	retlw	low (STR_6| (0+32768))
   871     1220  3488               	retlw	high (STR_6| (0+32768))
   872                           
   873                           ;initializer for _menu
   874     1221  34B6               	retlw	low (STR_17| (0+32768))
   875     1222  3488               	retlw	high (STR_17| (0+32768))
   876     1223  34A3               	retlw	low (STR_18| (0+32768))
   877     1224  3488               	retlw	high (STR_18| (0+32768))
   878     1225  347C               	retlw	low (STR_19| (0+32768))
   879     1226  3488               	retlw	high (STR_19| (0+32768))
   880     1227  3445               	retlw	low (STR_20| (0+32768))
   881     1228  3488               	retlw	high (STR_20| (0+32768))
   882     1229  34AD               	retlw	low (STR_21| (0+32768))
   883     122A  3488               	retlw	high (STR_21| (0+32768))
   884                           
   885                           ;initializer for main@F1249
   886     122B  344F               	retlw	79
   887     122C  344E               	retlw	78
   888     122D  3400               	retlw	0
   889     0019                     _TXREG          set	25
   890     001A                     _RCREG          set	26
   891     0006                     _PORTB          set	6
   892     001E                     _ADRESH         set	30
   893     0013                     _SSPBUF         set	19
   894     0008                     _PORTD          set	8
   895     0064                     _TXIF           set	100
   896     0065                     _RCIF           set	101
   897     00C4                     _CREN           set	196
   898     00C7                     _SPEN           set	199
   899     0061                     _TMR2IF         set	97
   900     0091                     _T2CKPS1        set	145
   901     0090                     _T2CKPS0        set	144
   902     0092                     _TMR2ON         set	146
   903     005F                     _GIE            set	95
   904     005E                     _PEIE           set	94
   905     00FA                     _nDONE          set	250
   906     00FA                     _GO             set	250
   907     00F8                     _ADON           set	248
   908     00A5                     _SSPEN          set	165
   909     00A3                     _SSPM3          set	163
   910     0049                     _RE1            set	73
   911     004A                     _RE2            set	74
   912     0099                     _SPBRG          set	153
   913     0092                     _PR2            set	146
   914     0086                     _TRISB          set	134
   915     009E                     _ADRESL         set	158
   916     0091                     _SSPCON2        set	145
   917     0093                     _SSPADD         set	147
   918     0088                     _TRISD          set	136
   919     0461                     _TMR2IE         set	1121
   920     04FF                     _ADFM           set	1279
   921     048E                     _ACKSTAT        set	1166
   922     048C                     _ACKEN          set	1164
   923     048D                     _ACKDT          set	1165
   924     048B                     _RCEN           set	1163
   925     048A                     _PEN            set	1162
   926     0488                     _SEN            set	1160
   927     04A2                     _R_nW           set	1186
   928     0449                     _TRISE1         set	1097
   929     044A                     _TRISE2         set	1098
   930                           
   931                           	psect	strings
   932     1000                     __pstrings:
   933     1000                     stringtab:
   934     1000                     __stringtab:
   935                           
   936                           ;	String table - string pointers are 2 bytes each
   937     1000  1BFF               	btfsc	btemp+1,7
   938     1001  280A               	ljmp	stringcode
   939     1002  1383               	bcf	3,7
   940     1003  187F               	btfsc	btemp+1,0
   941     1004  1783               	bsf	3,7
   942     1005  0800               	movf	0,w
   943     1006  0A84               	incf	4,f
   944     1007  1903               	skipnz
   945     1008  0AFF               	incf	btemp+1,f
   946     1009  0008               	return
   947     100A                     stringcode:
   948     100A  087F               	movf	btemp+1,w
   949     100B  397F               	andlw	127
   950     100C  008A               	movwf	10
   951     100D  0804               	movf	4,w
   952     100E  0A84               	incf	4,f
   953     100F  1903               	skipnz
   954     1010  0AFF               	incf	btemp+1,f
   955     1011  0082               	movwf	2
   956     1012                     __stringbase:
   957     1012                     __end_of__stringtab:
   958                           
   959                           	psect	stringtext
   960     0700                     __pstringtext:
   961     0700                     STR_36:
   962     0700  3423               	retlw	35	;'#'
   963     0701  3420               	retlw	32	;' '
   964     0702  3420               	retlw	32	;' '
   965     0703  3420               	retlw	32	;' '
   966     0704  3420               	retlw	32	;' '
   967     0705  3420               	retlw	32	;' '
   968     0706  3454               	retlw	84	;'T'
   969     0707  3469               	retlw	105	;'i'
   970     0708  346D               	retlw	109	;'m'
   971     0709  3465               	retlw	101	;'e'
   972     070A  3420               	retlw	32	;' '
   973     070B  3420               	retlw	32	;' '
   974     070C  3420               	retlw	32	;' '
   975     070D  3420               	retlw	32	;' '
   976     070E  3420               	retlw	32	;' '
   977     070F  3420               	retlw	32	;' '
   978     0710  3420               	retlw	32	;' '
   979     0711  3420               	retlw	32	;' '
   980     0712  3445               	retlw	69	;'E'
   981     0713  3476               	retlw	118	;'v'
   982     0714  3465               	retlw	101	;'e'
   983     0715  346E               	retlw	110	;'n'
   984     0716  3474               	retlw	116	;'t'
   985     0717  3420               	retlw	32	;' '
   986     0718  3420               	retlw	32	;' '
   987     0719  3420               	retlw	32	;' '
   988     071A  3420               	retlw	32	;' '
   989     071B  3420               	retlw	32	;' '
   990     071C  3420               	retlw	32	;' '
   991     071D  3420               	retlw	32	;' '
   992     071E  3453               	retlw	83	;'S'
   993     071F  3470               	retlw	112	;'p'
   994     0720  3465               	retlw	101	;'e'
   995     0721  3465               	retlw	101	;'e'
   996     0722  3464               	retlw	100	;'d'
   997     0723  3400               	retlw	0
   998     0724                     STR_43:
   999     0724  3420               	retlw	32	;' '
  1000     0725  3420               	retlw	32	;' '
  1001     0726  3420               	retlw	32	;' '
  1002     0727  3420               	retlw	32	;' '
  1003     0728  3420               	retlw	32	;' '
  1004     0729  3420               	retlw	32	;' '
  1005     072A  3420               	retlw	32	;' '
  1006     072B  3420               	retlw	32	;' '
  1007     072C  3420               	retlw	32	;' '
  1008     072D  3420               	retlw	32	;' '
  1009     072E  3420               	retlw	32	;' '
  1010     072F  3420               	retlw	32	;' '
  1011     0730  3420               	retlw	32	;' '
  1012     0731  3420               	retlw	32	;' '
  1013     0732  3420               	retlw	32	;' '
  1014     0733  3420               	retlw	32	;' '
  1015     0734  3420               	retlw	32	;' '
  1016     0735  3400               	retlw	0
  1017     0736                     STR_34:
  1018     0736  344E               	retlw	78	;'N'
  1019     0737  346F               	retlw	111	;'o'
  1020     0738  3420               	retlw	32	;' '
  1021     0739  346C               	retlw	108	;'l'
  1022     073A  346F               	retlw	111	;'o'
  1023     073B  3467               	retlw	103	;'g'
  1024     073C  3473               	retlw	115	;'s'
  1025     073D  3420               	retlw	32	;' '
  1026     073E  3461               	retlw	97	;'a'
  1027     073F  3476               	retlw	118	;'v'
  1028     0740  3461               	retlw	97	;'a'
  1029     0741  3469               	retlw	105	;'i'
  1030     0742  346C               	retlw	108	;'l'
  1031     0743  3461               	retlw	97	;'a'
  1032     0744  3462               	retlw	98	;'b'
  1033     0745  346C               	retlw	108	;'l'
  1034     0746  3465               	retlw	101	;'e'
  1035     0747  3400               	retlw	0
  1036     0748                     STR_29:
  1037     0748  3420               	retlw	32	;' '
  1038     0749  3420               	retlw	32	;' '
  1039     074A  3420               	retlw	32	;' '
  1040     074B  3420               	retlw	32	;' '
  1041     074C  344E               	retlw	78	;'N'
  1042     074D  346F               	retlw	111	;'o'
  1043     074E  3420               	retlw	32	;' '
  1044     074F  346C               	retlw	108	;'l'
  1045     0750  346F               	retlw	111	;'o'
  1046     0751  3467               	retlw	103	;'g'
  1047     0752  3473               	retlw	115	;'s'
  1048     0753  3420               	retlw	32	;' '
  1049     0754  3420               	retlw	32	;' '
  1050     0755  3420               	retlw	32	;' '
  1051     0756  3420               	retlw	32	;' '
  1052     0757  3420               	retlw	32	;' '
  1053     0758  3400               	retlw	0
  1054     0759                     STR_41:
  1055     0759  3445               	retlw	69	;'E'
  1056     075A  346E               	retlw	110	;'n'
  1057     075B  3474               	retlw	116	;'t'
  1058     075C  3465               	retlw	101	;'e'
  1059     075D  3472               	retlw	114	;'r'
  1060     075E  3420               	retlw	32	;' '
  1061     075F  346E               	retlw	110	;'n'
  1062     0760  3465               	retlw	101	;'e'
  1063     0761  3477               	retlw	119	;'w'
  1064     0762  3420               	retlw	32	;' '
  1065     0763  3470               	retlw	112	;'p'
  1066     0764  3477               	retlw	119	;'w'
  1067     0765  3464               	retlw	100	;'d'
  1068     0766  343A               	retlw	58	;':'
  1069     0767  3420               	retlw	32	;' '
  1070     0768  3420               	retlw	32	;' '
  1071     0769  3400               	retlw	0
  1072     076A                     STR_25:
  1073     076A  3420               	retlw	32	;' '
  1074     076B  3457               	retlw	87	;'W'
  1075     076C  3472               	retlw	114	;'r'
  1076     076D  346F               	retlw	111	;'o'
  1077     076E  346E               	retlw	110	;'n'
  1078     076F  3467               	retlw	103	;'g'
  1079     0770  3420               	retlw	32	;' '
  1080     0771  3450               	retlw	80	;'P'
  1081     0772  3461               	retlw	97	;'a'
  1082     0773  3473               	retlw	115	;'s'
  1083     0774  3473               	retlw	115	;'s'
  1084     0775  3477               	retlw	119	;'w'
  1085     0776  346F               	retlw	111	;'o'
  1086     0777  3472               	retlw	114	;'r'
  1087     0778  3464               	retlw	100	;'d'
  1088     0779  3420               	retlw	32	;' '
  1089     077A  3400               	retlw	0
  1090     077B                     STR_22:
  1091     077B  3420               	retlw	32	;' '
  1092     077C  3420               	retlw	32	;' '
  1093     077D  3454               	retlw	84	;'T'
  1094     077E  3449               	retlw	73	;'I'
  1095     077F  344D               	retlw	77	;'M'
  1096     0780  3445               	retlw	69	;'E'
  1097     0781  3420               	retlw	32	;' '
  1098     0782  3420               	retlw	32	;' '
  1099     0783  3420               	retlw	32	;' '
  1100     0784  3420               	retlw	32	;' '
  1101     0785  3420               	retlw	32	;' '
  1102     0786  3445               	retlw	69	;'E'
  1103     0787  3420               	retlw	32	;' '
  1104     0788  3420               	retlw	32	;' '
  1105     0789  3453               	retlw	83	;'S'
  1106     078A  3450               	retlw	80	;'P'
  1107     078B  3400               	retlw	0
  1108     078C                     STR_45:
  1109     078C  3450               	retlw	80	;'P'
  1110     078D  3461               	retlw	97	;'a'
  1111     078E  3473               	retlw	115	;'s'
  1112     078F  3473               	retlw	115	;'s'
  1113     0790  3477               	retlw	119	;'w'
  1114     0791  346F               	retlw	111	;'o'
  1115     0792  3472               	retlw	114	;'r'
  1116     0793  3464               	retlw	100	;'d'
  1117     0794  3420               	retlw	32	;' '
  1118     0795  3463               	retlw	99	;'c'
  1119     0796  3468               	retlw	104	;'h'
  1120     0797  3461               	retlw	97	;'a'
  1121     0798  346E               	retlw	110	;'n'
  1122     0799  3467               	retlw	103	;'g'
  1123     079A  3465               	retlw	101	;'e'
  1124     079B  3464               	retlw	100	;'d'
  1125     079C  3400               	retlw	0
  1126     079D                     STR_23:
  1127     079D  3459               	retlw	89	;'Y'
  1128     079E  346F               	retlw	111	;'o'
  1129     079F  3475               	retlw	117	;'u'
  1130     07A0  3420               	retlw	32	;' '
  1131     07A1  3441               	retlw	65	;'A'
  1132     07A2  3472               	retlw	114	;'r'
  1133     07A3  3465               	retlw	101	;'e'
  1134     07A4  3420               	retlw	32	;' '
  1135     07A5  3420               	retlw	32	;' '
  1136     07A6  3442               	retlw	66	;'B'
  1137     07A7  346C               	retlw	108	;'l'
  1138     07A8  346F               	retlw	111	;'o'
  1139     07A9  3463               	retlw	99	;'c'
  1140     07AA  346B               	retlw	107	;'k'
  1141     07AB  3465               	retlw	101	;'e'
  1142     07AC  3464               	retlw	100	;'d'
  1143     07AD  3400               	retlw	0
  1144     07AE                     STR_42:
  1145     07AE  3452               	retlw	82	;'R'
  1146     07AF  3465               	retlw	101	;'e'
  1147     07B0  342D               	retlw	45	;'-'
  1148     07B1  3465               	retlw	101	;'e'
  1149     07B2  346E               	retlw	110	;'n'
  1150     07B3  3474               	retlw	116	;'t'
  1151     07B4  3465               	retlw	101	;'e'
  1152     07B5  3472               	retlw	114	;'r'
  1153     07B6  3420               	retlw	32	;' '
  1154     07B7  346E               	retlw	110	;'n'
  1155     07B8  3465               	retlw	101	;'e'
  1156     07B9  3477               	retlw	119	;'w'
  1157     07BA  3420               	retlw	32	;' '
  1158     07BB  3470               	retlw	112	;'p'
  1159     07BC  3477               	retlw	119	;'w'
  1160     07BD  3464               	retlw	100	;'d'
  1161     07BE  3400               	retlw	0
  1162     07BF                     STR_47:
  1163     07BF  3450               	retlw	80	;'P'
  1164     07C0  3461               	retlw	97	;'a'
  1165     07C1  3473               	retlw	115	;'s'
  1166     07C2  3473               	retlw	115	;'s'
  1167     07C3  3477               	retlw	119	;'w'
  1168     07C4  346F               	retlw	111	;'o'
  1169     07C5  3472               	retlw	114	;'r'
  1170     07C6  3464               	retlw	100	;'d'
  1171     07C7  3420               	retlw	32	;' '
  1172     07C8  3420               	retlw	32	;' '
  1173     07C9  3463               	retlw	99	;'c'
  1174     07CA  3468               	retlw	104	;'h'
  1175     07CB  3461               	retlw	97	;'a'
  1176     07CC  346E               	retlw	110	;'n'
  1177     07CD  3467               	retlw	103	;'g'
  1178     07CE  3465               	retlw	101	;'e'
  1179     07CF  3400               	retlw	0
  1180     07D0                     STR_24:
  1181     07D0  3457               	retlw	87	;'W'
  1182     07D1  3461               	retlw	97	;'a'
  1183     07D2  3469               	retlw	105	;'i'
  1184     07D3  3474               	retlw	116	;'t'
  1185     07D4  3420               	retlw	32	;' '
  1186     07D5  3466               	retlw	102	;'f'
  1187     07D6  346F               	retlw	111	;'o'
  1188     07D7  3472               	retlw	114	;'r'
  1189     07D8  342E               	retlw	46	;'.'
  1190     07D9  342E               	retlw	46	;'.'
  1191     07DA  342E               	retlw	46	;'.'
  1192     07DB  3431               	retlw	49	;'1'
  1193     07DC  3435               	retlw	53	;'5'
  1194     07DD  346D               	retlw	109	;'m'
  1195     07DE  3469               	retlw	105	;'i'
  1196     07DF  346E               	retlw	110	;'n'
  1197     07E0  3400               	retlw	0
  1198     07E1                     STR_12:
  1199     07E1  3420               	retlw	32	;' '
  1200     07E2  3420               	retlw	32	;' '
  1201     07E3  3420               	retlw	32	;' '
  1202     07E4  3420               	retlw	32	;' '
  1203     07E5  3420               	retlw	32	;' '
  1204     07E6  3420               	retlw	32	;' '
  1205     07E7  344F               	retlw	79	;'O'
  1206     07E8  3470               	retlw	112	;'p'
  1207     07E9  3465               	retlw	101	;'e'
  1208     07EA  346E               	retlw	110	;'n'
  1209     07EB  3420               	retlw	32	;' '
  1210     07EC  3420               	retlw	32	;' '
  1211     07ED  3420               	retlw	32	;' '
  1212     07EE  3420               	retlw	32	;' '
  1213     07EF  3420               	retlw	32	;' '
  1214     07F0  3420               	retlw	32	;' '
  1215     07F1  3400               	retlw	0
  1216     07F2                     STR_10:
  1217     07F2  3420               	retlw	32	;' '
  1218     07F3  3420               	retlw	32	;' '
  1219     07F4  3420               	retlw	32	;' '
  1220     07F5  3420               	retlw	32	;' '
  1221     07F6  3420               	retlw	32	;' '
  1222     07F7  3420               	retlw	32	;' '
  1223     07F8  344C               	retlw	76	;'L'
  1224     07F9  346F               	retlw	111	;'o'
  1225     07FA  3467               	retlw	103	;'g'
  1226     07FB  3473               	retlw	115	;'s'
  1227     07FC  3420               	retlw	32	;' '
  1228     07FD  3420               	retlw	32	;' '
  1229     07FE  3420               	retlw	32	;' '
  1230     07FF  3420               	retlw	32	;' '
  1231     0800  3420               	retlw	32	;' '
  1232     0801  3420               	retlw	32	;' '
  1233     0802  3400               	retlw	0
  1234     0803                     STR_13:
  1235     0803  3420               	retlw	32	;' '
  1236     0804  3420               	retlw	32	;' '
  1237     0805  3420               	retlw	32	;' '
  1238     0806  3420               	retlw	32	;' '
  1239     0807  3420               	retlw	32	;' '
  1240     0808  3443               	retlw	67	;'C'
  1241     0809  3475               	retlw	117	;'u'
  1242     080A  3474               	retlw	116	;'t'
  1243     080B  3465               	retlw	101	;'e'
  1244     080C  3463               	retlw	99	;'c'
  1245     080D  346F               	retlw	111	;'o'
  1246     080E  346D               	retlw	109	;'m'
  1247     080F  3420               	retlw	32	;' '
  1248     0810  3420               	retlw	32	;' '
  1249     0811  3420               	retlw	32	;' '
  1250     0812  3420               	retlw	32	;' '
  1251     0813  3400               	retlw	0
  1252     0814                     STR_9:
  1253     0814  3420               	retlw	32	;' '
  1254     0815  3445               	retlw	69	;'E'
  1255     0816  346E               	retlw	110	;'n'
  1256     0817  3474               	retlw	116	;'t'
  1257     0818  3465               	retlw	101	;'e'
  1258     0819  3472               	retlw	114	;'r'
  1259     081A  3420               	retlw	32	;' '
  1260     081B  3450               	retlw	80	;'P'
  1261     081C  3461               	retlw	97	;'a'
  1262     081D  3473               	retlw	115	;'s'
  1263     081E  3473               	retlw	115	;'s'
  1264     081F  3477               	retlw	119	;'w'
  1265     0820  346F               	retlw	111	;'o'
  1266     0821  3472               	retlw	114	;'r'
  1267     0822  3464               	retlw	100	;'d'
  1268     0823  3420               	retlw	32	;' '
  1269     0824  3400               	retlw	0
  1270     0825                     STR_49:
  1271     0825  3454               	retlw	84	;'T'
  1272     0826  3469               	retlw	105	;'i'
  1273     0827  346D               	retlw	109	;'m'
  1274     0828  3465               	retlw	101	;'e'
  1275     0829  3420               	retlw	32	;' '
  1276     082A  3428               	retlw	40	;'('
  1277     082B  3448               	retlw	72	;'H'
  1278     082C  3448               	retlw	72	;'H'
  1279     082D  343A               	retlw	58	;':'
  1280     082E  344D               	retlw	77	;'M'
  1281     082F  344D               	retlw	77	;'M'
  1282     0830  343A               	retlw	58	;':'
  1283     0831  3453               	retlw	83	;'S'
  1284     0832  3453               	retlw	83	;'S'
  1285     0833  3429               	retlw	41	;')'
  1286     0834  3400               	retlw	0
  1287     0835                     STR_26:
  1288     0835  3420               	retlw	32	;' '
  1289     0836  3441               	retlw	65	;'A'
  1290     0837  3474               	retlw	116	;'t'
  1291     0838  3474               	retlw	116	;'t'
  1292     0839  3465               	retlw	101	;'e'
  1293     083A  346D               	retlw	109	;'m'
  1294     083B  3470               	retlw	112	;'p'
  1295     083C  3474               	retlw	116	;'t'
  1296     083D  3420               	retlw	32	;' '
  1297     083E  3452               	retlw	82	;'R'
  1298     083F  3465               	retlw	101	;'e'
  1299     0840  346D               	retlw	109	;'m'
  1300     0841  3461               	retlw	97	;'a'
  1301     0842  3469               	retlw	105	;'i'
  1302     0843  346E               	retlw	110	;'n'
  1303     0844  3400               	retlw	0
  1304     0845                     STR_20:
  1305     0845  3443               	retlw	67	;'C'
  1306     0846  3468               	retlw	104	;'h'
  1307     0847  3461               	retlw	97	;'a'
  1308     0848  346E               	retlw	110	;'n'
  1309     0849  3467               	retlw	103	;'g'
  1310     084A  3465               	retlw	101	;'e'
  1311     084B  3420               	retlw	32	;' '
  1312     084C  3470               	retlw	112	;'p'
  1313     084D  3461               	retlw	97	;'a'
  1314     084E  3473               	retlw	115	;'s'
  1315     084F  3473               	retlw	115	;'s'
  1316     0850  3477               	retlw	119	;'w'
  1317     0851  3472               	retlw	114	;'r'
  1318     0852  3464               	retlw	100	;'d'
  1319     0853  3400               	retlw	0
  1320     0854                     STR_46:
  1321     0854  3473               	retlw	115	;'s'
  1322     0855  3475               	retlw	117	;'u'
  1323     0856  3463               	retlw	99	;'c'
  1324     0857  3463               	retlw	99	;'c'
  1325     0858  3465               	retlw	101	;'e'
  1326     0859  3473               	retlw	115	;'s'
  1327     085A  3473               	retlw	115	;'s'
  1328     085B  3466               	retlw	102	;'f'
  1329     085C  3475               	retlw	117	;'u'
  1330     085D  346C               	retlw	108	;'l'
  1331     085E  346C               	retlw	108	;'l'
  1332     085F  3479               	retlw	121	;'y'
  1333     0860  3420               	retlw	32	;' '
  1334     0861  3400               	retlw	0
  1335     0862                     STR_50:
  1336     0862  3454               	retlw	84	;'T'
  1337     0863  3469               	retlw	105	;'i'
  1338     0864  346D               	retlw	109	;'m'
  1339     0865  3465               	retlw	101	;'e'
  1340     0866  3420               	retlw	32	;' '
  1341     0867  3463               	retlw	99	;'c'
  1342     0868  3468               	retlw	104	;'h'
  1343     0869  3461               	retlw	97	;'a'
  1344     086A  346E               	retlw	110	;'n'
  1345     086B  3467               	retlw	103	;'g'
  1346     086C  3465               	retlw	101	;'e'
  1347     086D  3464               	retlw	100	;'d'
  1348     086E  3400               	retlw	0
  1349     086F                     STR_32:
  1350     086F  344C               	retlw	76	;'L'
  1351     0870  346F               	retlw	111	;'o'
  1352     0871  3467               	retlw	103	;'g'
  1353     0872  3473               	retlw	115	;'s'
  1354     0873  3420               	retlw	32	;' '
  1355     0874  3463               	retlw	99	;'c'
  1356     0875  346C               	retlw	108	;'l'
  1357     0876  3465               	retlw	101	;'e'
  1358     0877  3461               	retlw	97	;'a'
  1359     0878  3472               	retlw	114	;'r'
  1360     0879  3465               	retlw	101	;'e'
  1361     087A  3464               	retlw	100	;'d'
  1362     087B  3400               	retlw	0
  1363     087C                     STR_19:
  1364     087C  3444               	retlw	68	;'D'
  1365     087D  346F               	retlw	111	;'o'
  1366     087E  3477               	retlw	119	;'w'
  1367     087F  346E               	retlw	110	;'n'
  1368     0880  346C               	retlw	108	;'l'
  1369     0881  346F               	retlw	111	;'o'
  1370     0882  3461               	retlw	97	;'a'
  1371     0883  3464               	retlw	100	;'d'
  1372     0884  3420               	retlw	32	;' '
  1373     0885  346C               	retlw	108	;'l'
  1374     0886  346F               	retlw	111	;'o'
  1375     0887  3467               	retlw	103	;'g'
  1376     0888  3400               	retlw	0
  1377     0889                     STR_51:
  1378     0889  3453               	retlw	83	;'S'
  1379     088A  3475               	retlw	117	;'u'
  1380     088B  3463               	retlw	99	;'c'
  1381     088C  3463               	retlw	99	;'c'
  1382     088D  3465               	retlw	101	;'e'
  1383     088E  3473               	retlw	115	;'s'
  1384     088F  3473               	retlw	115	;'s'
  1385     0890  3466               	retlw	102	;'f'
  1386     0891  3475               	retlw	117	;'u'
  1387     0892  346C               	retlw	108	;'l'
  1388     0893  346C               	retlw	108	;'l'
  1389     0894  3479               	retlw	121	;'y'
  1390     0895  3400               	retlw	0
  1391     0896                     STR_33:
  1392     0896  3473               	retlw	115	;'s'
  1393     0897  3475               	retlw	117	;'u'
  1394     0898  3463               	retlw	99	;'c'
  1395     0899  3463               	retlw	99	;'c'
  1396     089A  3465               	retlw	101	;'e'
  1397     089B  3473               	retlw	115	;'s'
  1398     089C  3473               	retlw	115	;'s'
  1399     089D  3466               	retlw	102	;'f'
  1400     089E  3475               	retlw	117	;'u'
  1401     089F  346C               	retlw	108	;'l'
  1402     08A0  346C               	retlw	108	;'l'
  1403     08A1  3479               	retlw	121	;'y'
  1404     08A2  3400               	retlw	0
  1405     08A3                     STR_18:
  1406     08A3  3443               	retlw	67	;'C'
  1407     08A4  346C               	retlw	108	;'l'
  1408     08A5  3465               	retlw	101	;'e'
  1409     08A6  3461               	retlw	97	;'a'
  1410     08A7  3472               	retlw	114	;'r'
  1411     08A8  3420               	retlw	32	;' '
  1412     08A9  346C               	retlw	108	;'l'
  1413     08AA  346F               	retlw	111	;'o'
  1414     08AB  3467               	retlw	103	;'g'
  1415     08AC  3400               	retlw	0
  1416     08AD                     STR_21:
  1417     08AD  3453               	retlw	83	;'S'
  1418     08AE  3465               	retlw	101	;'e'
  1419     08AF  3474               	retlw	116	;'t'
  1420     08B0  3420               	retlw	32	;' '
  1421     08B1  3474               	retlw	116	;'t'
  1422     08B2  3469               	retlw	105	;'i'
  1423     08B3  346D               	retlw	109	;'m'
  1424     08B4  3465               	retlw	101	;'e'
  1425     08B5  3400               	retlw	0
  1426     08B6                     STR_17:
  1427     08B6  3456               	retlw	86	;'V'
  1428     08B7  3469               	retlw	105	;'i'
  1429     08B8  3465               	retlw	101	;'e'
  1430     08B9  3477               	retlw	119	;'w'
  1431     08BA  3420               	retlw	32	;' '
  1432     08BB  346C               	retlw	108	;'l'
  1433     08BC  346F               	retlw	111	;'o'
  1434     08BD  3467               	retlw	103	;'g'
  1435     08BE  3400               	retlw	0
  1436     08BF                     STR_35:
  1437     08BF  344C               	retlw	76	;'L'
  1438     08C0  346F               	retlw	111	;'o'
  1439     08C1  3467               	retlw	103	;'g'
  1440     08C2  3473               	retlw	115	;'s'
  1441     08C3  3420               	retlw	32	;' '
  1442     08C4  343A               	retlw	58	;':'
  1443     08C5  3400               	retlw	0
  1444     08C6                     STR_48:
  1445     08C6  3466               	retlw	102	;'f'
  1446     08C7  3461               	retlw	97	;'a'
  1447     08C8  3469               	retlw	105	;'i'
  1448     08C9  346C               	retlw	108	;'l'
  1449     08CA  3465               	retlw	101	;'e'
  1450     08CB  3464               	retlw	100	;'d'
  1451     08CC  3400               	retlw	0
  1452     08CD                     STR_7:
  1453     08CD  3431               	retlw	49	;'1'
  1454     08CE  3430               	retlw	48	;'0'
  1455     08CF  3431               	retlw	49	;'1'
  1456     08D0  3430               	retlw	48	;'0'
  1457     08D1  3400               	retlw	0
  1458     08D2                     STR_3:
  1459     08D2  3447               	retlw	71	;'G'
  1460     08D3  3431               	retlw	49	;'1'
  1461     08D4  3400               	retlw	0
  1462     08D5                     STR_4:
  1463     08D5  3447               	retlw	71	;'G'
  1464     08D6  3432               	retlw	50	;'2'
  1465     08D7  3400               	retlw	0
  1466     08D8                     STR_5:
  1467     08D8  3447               	retlw	71	;'G'
  1468     08D9  3433               	retlw	51	;'3'
  1469     08DA  3400               	retlw	0
  1470     08DB                     STR_6:
  1471     08DB  3447               	retlw	71	;'G'
  1472     08DC  3434               	retlw	52	;'4'
  1473     08DD  3400               	retlw	0
  1474     08DE                     STR_15:
  1475     08DE  3443               	retlw	67	;'C'
  1476     08DF  344C               	retlw	76	;'L'
  1477     08E0  3400               	retlw	0
  1478     08E1                     STR_11:
  1479     08E1  3444               	retlw	68	;'D'
  1480     08E2  344C               	retlw	76	;'L'
  1481     08E3  3400               	retlw	0
  1482     08E4                     STR_1:
  1483     08E4  3447               	retlw	71	;'G'
  1484     08E5  344E               	retlw	78	;'N'
  1485     08E6  3400               	retlw	0
  1486     08E7                     STR_8:
  1487     08E7  3443               	retlw	67	;'C'
  1488     08E8  344F               	retlw	79	;'O'
  1489     08E9  3400               	retlw	0
  1490     08EA                     STR_16:
  1491     08EA  3443               	retlw	67	;'C'
  1492     08EB  3450               	retlw	80	;'P'
  1493     08EC  3400               	retlw	0
  1494     08ED                     STR_2:
  1495     08ED  3447               	retlw	71	;'G'
  1496     08EE  3452               	retlw	82	;'R'
  1497     08EF  3400               	retlw	0
  1498     08F0                     STR_14:
  1499     08F0  3453               	retlw	83	;'S'
  1500     08F1  3454               	retlw	84	;'T'
  1501     08F2  3400               	retlw	0
  1502     0814                     STR_27          equ	STR_9
  1503     0724                     STR_44          equ	STR_43
  1504     0725                     STR_28          equ	STR_43+1
  1505     0725                     STR_30          equ	STR_43+1
  1506     0725                     STR_31          equ	STR_43+1
  1507     0729                     STR_39          equ	STR_43+5
  1508     072F                     STR_38          equ	STR_43+11
  1509     0731                     STR_40          equ	STR_43+13
  1510     0732                     STR_37          equ	STR_43+14
  1511     0733                     STR_52          equ	STR_43+15
  1512     0733                     STR_53          equ	STR_43+15
  1513     0733                     STR_54          equ	STR_43+15
  1514                           
  1515                           	psect	cinit
  1516     000F                     start_initialization:	
  1517                           ; #config settings
  1518                           
  1519     000F                     __initialization:
  1520                           
  1521                           ; Initialize objects allocated to BANK1
  1522     000F  1383               	bcf	3,7	;select IRP bank0
  1523     0010  30B9               	movlw	low (__pdataBANK1+25)
  1524     0011  00FD               	movwf	btemp+-1
  1525     0012  3012               	movlw	high __pidataBANK1
  1526     0013  00FE               	movwf	btemp
  1527     0014  3015               	movlw	low __pidataBANK1
  1528     0015  00FF               	movwf	btemp+1
  1529     0016  30A0               	movlw	low __pdataBANK1
  1530     0017  0084               	movwf	4
  1531     0018  160A  118A  21F1  120A  118A  	fcall	init_ram0
  1532                           
  1533                           ; Initialize objects allocated to BANK0
  1534     001D  306C               	movlw	low (__pdataBANK0+6)
  1535     001E  00FD               	movwf	btemp+-1
  1536     001F  3011               	movlw	high __pidataBANK0
  1537     0020  00FE               	movwf	btemp
  1538     0021  3038               	movlw	low __pidataBANK0
  1539     0022  00FF               	movwf	btemp+1
  1540     0023  3066               	movlw	low __pdataBANK0
  1541     0024  0084               	movwf	4
  1542     0025  160A  118A  21F1  120A  118A  	fcall	init_ram0
  1543                           
  1544                           ; Clear objects allocated to BANK1
  1545     002A  30B9               	movlw	low __pbssBANK1
  1546     002B  0084               	movwf	4
  1547     002C  30D1               	movlw	low (__pbssBANK1+24)
  1548     002D  160A  118A  2145  120A  118A  	fcall	clear_ram0
  1549                           
  1550                           ; Clear objects allocated to BANK0
  1551     0032  3020               	movlw	low __pbssBANK0
  1552     0033  0084               	movwf	4
  1553     0034  3045               	movlw	low (__pbssBANK0+37)
  1554     0035  160A  118A  2145  120A  118A  	fcall	clear_ram0
  1555                           
  1556                           ; Clear objects allocated to COMMON
  1557     003A  01FA               	clrf	__pbssCOMMON& (0+127)
  1558     003B  01FB               	clrf	(__pbssCOMMON+1)& (0+127)
  1559     003C                     end_of_initialization:	
  1560                           ;End of C runtime variable initialization code
  1561                           
  1562     003C                     __end_of__initialization:
  1563     003C  0183               	clrf	3
  1564     003D  120A  118A  2840   	ljmp	_main	;jump to C main() function
  1565                           
  1566                           	psect	bssCOMMON
  1567     007A                     __pbssCOMMON:
  1568     007A                     read_digital_keypad@once:
  1569     007A                     	ds	1
  1570     007B                     change_password@pwd_changed:
  1571     007B                     	ds	1
  1572                           
  1573                           	psect	bssBANK0
  1574     0020                     __pbssBANK0:
  1575     0020                     change_time@new_time:
  1576     0020                     	ds	6
  1577     0026                     _clock_reg:
  1578     0026                     	ds	3
  1579     0029                     isr@count:
  1580     0029                     	ds	2
  1581     002B                     read_digital_keypad@long_pressed:
  1582     002B                     	ds	2
  1583     002D                     change_time@blink_pos:
  1584     002D                     	ds	2
  1585     002F                     change_password@blink_delay:
  1586     002F                     	ds	2
  1587     0031                     change_password@pwd_pos:
  1588     0031                     	ds	2
  1589     0033                     view_log@index:
  1590     0033                     	ds	2
  1591     0035                     _sec:
  1592     0035                     	ds	2
  1593     0037                     read_digital_keypad@pre_key:
  1594     0037                     	ds	1
  1595     0038                     change_time@t_done:
  1596     0038                     	ds	1
  1597     0039                     change_time@blink:
  1598     0039                     	ds	1
  1599     003A                     change_time@wait:
  1600     003A                     	ds	1
  1601     003B                     change_password@toggle_cursor:
  1602     003B                     	ds	1
  1603     003C                     login_menu@menu_pos:
  1604     003C                     	ds	1
  1605     003D                     login@i:
  1606     003D                     	ds	1
  1607     003E                     _time:
  1608     003E                     	ds	7
  1609                           
  1610                           	psect	dataBANK0
  1611     0066                     __pdataBANK0:
  1612     0066                     _event_count:
  1613     0066                     	ds	2
  1614     0068                     _pos:
  1615     0068                     	ds	2
  1616     006A                     login@attempts_rem:
  1617     006A                     	ds	1
  1618     006B                     _return_time:
  1619     006B                     	ds	1
  1620                           
  1621                           	psect	bssBANK1
  1622     00B9                     __pbssBANK1:
  1623     00B9                     _log:
  1624     00B9                     	ds	11
  1625     00C4                     change_password@new_pwd:
  1626     00C4                     	ds	9
  1627     00CD                     login@npassword:
  1628     00CD                     	ds	4
  1629                           
  1630                           	psect	dataBANK1
  1631     00A0                     __pdataBANK1:
  1632     00A0                     _gear:
  1633     00A0                     	ds	12
  1634     00AC                     _menu:
  1635     00AC                     	ds	10
  1636     00B6                     main@F1249:
  1637     00B6                     	ds	3
  1638                           
  1639                           	psect	inittext
  1640     11ED                     init_fetch0:	
  1641                           ;	Called with low address in FSR and high address in W
  1642                           
  1643     11ED  087E               	movf	btemp,w
  1644     11EE  008A               	movwf	10
  1645     11EF  087F               	movf	btemp+1,w
  1646     11F0  0082               	movwf	2
  1647     11F1                     init_ram0:	
  1648                           ;Called with:
  1649                           ;	high address of idata address in btemp 
  1650                           ;	low address of idata address in btemp+1 
  1651                           ;	low address of data in FSR
  1652                           ;	high address + 1 of data in btemp-1
  1653                           
  1654     11F1  160A  118A  21ED  160A  118A  	fcall	init_fetch0
  1655     11F6  0080               	movwf	0
  1656     11F7  0A84               	incf	4,f
  1657     11F8  0804               	movf	4,w
  1658     11F9  067D               	xorwf	btemp+-1,w
  1659     11FA  1903               	btfsc	3,2
  1660     11FB  3400               	retlw	0
  1661     11FC  0AFF               	incf	btemp+1,f
  1662     11FD  1903               	btfsc	3,2
  1663     11FE  0AFE               	incf	btemp,f
  1664     11FF  29F1               	goto	init_ram0
  1665                           
  1666                           	psect	clrtext
  1667     1145                     clear_ram0:	
  1668                           ;	Called with FSR containing the base address, and
  1669                           ;	W with the last address+1
  1670                           
  1671     1145  0064               	clrwdt	;clear the watchdog before getting into this loop
  1672     1146                     clrloop0:
  1673     1146  0180               	clrf	0	;clear RAM location pointed to by FSR
  1674     1147  0A84               	incf	4,f	;increment pointer
  1675     1148  0604               	xorwf	4,w	;XOR with final address
  1676     1149  1903               	btfsc	3,2	;have we reached the end yet?
  1677     114A  3400               	retlw	0	;all done for this memory range, return
  1678     114B  0604               	xorwf	4,w	;XOR again to restore value
  1679     114C  2946               	goto	clrloop0	;do the next byte
  1680                           
  1681                           	psect	cstackBANK1
  1682     00D1                     __pcstackBANK1:
  1683     00D1                     main@menu_pos:
  1684                           
  1685                           ; 1 bytes @ 0x0
  1686     00D1                     	ds	1
  1687     00D2                     main@event:
  1688                           
  1689                           ; 3 bytes @ 0x1
  1690     00D2                     	ds	3
  1691     00D5                     main@gr:
  1692                           
  1693                           ; 1 bytes @ 0x4
  1694     00D5                     	ds	1
  1695     00D6                     main@reset_flag:
  1696                           
  1697                           ; 1 bytes @ 0x5
  1698     00D6                     	ds	1
  1699     00D7                     main@speed:
  1700                           
  1701                           ; 1 bytes @ 0x6
  1702     00D7                     	ds	1
  1703     00D8                     main@control_flag:
  1704                           
  1705                           ; 1 bytes @ 0x7
  1706     00D8                     	ds	1
  1707     00D9                     main@key:
  1708                           
  1709                           ; 1 bytes @ 0x8
  1710     00D9                     	ds	1
  1711                           
  1712                           	psect	cstackCOMMON
  1713     0070                     __pcstackCOMMON:
  1714     0070                     ?_read_ds1307:
  1715     0070                     ?_i2c_start:	
  1716                           ; 1 bytes @ 0x0
  1717                           
  1718     0070                     ?_i2c_rep_start:	
  1719                           ; 1 bytes @ 0x0
  1720                           
  1721     0070                     ?_i2c_read:	
  1722                           ; 1 bytes @ 0x0
  1723                           
  1724     0070                     ?_i2c_stop:	
  1725                           ; 1 bytes @ 0x0
  1726                           
  1727     0070                     ?_init_digital_keypad:	
  1728                           ; 1 bytes @ 0x0
  1729                           
  1730     0070                     ?_init_timer2:	
  1731                           ; 1 bytes @ 0x0
  1732                           
  1733     0070                     ?_read_digital_keypad:	
  1734                           ; 1 bytes @ 0x0
  1735                           
  1736     0070                     ?_clear_screen:	
  1737                           ; 1 bytes @ 0x0
  1738                           
  1739     0070                     ?_download_log:	
  1740                           ; 1 bytes @ 0x0
  1741                           
  1742     0070                     ?_clear_log:	
  1743                           ; 1 bytes @ 0x0
  1744                           
  1745     0070                     ?_eeprom_at24c04_random_read:	
  1746                           ; 1 bytes @ 0x0
  1747                           
  1748     0070                     ?_putchar:	
  1749                           ; 1 bytes @ 0x0
  1750                           
  1751     0070                     ?_init_display_controller:	
  1752                           ; 1 bytes @ 0x0
  1753                           
  1754     0070                     ?_init_clcd:	
  1755                           ; 1 bytes @ 0x0
  1756                           
  1757     0070                     ?_init_ds1307:	
  1758                           ; 1 bytes @ 0x0
  1759                           
  1760     0070                     ?_i2c_wait_for_idle:	
  1761                           ; 1 bytes @ 0x0
  1762                           
  1763     0070                     ?_init_adc:	
  1764                           ; 1 bytes @ 0x0
  1765                           
  1766     0070                     ?_init_config:	
  1767                           ; 1 bytes @ 0x0
  1768                           
  1769     0070                     ?_main:	
  1770                           ; 1 bytes @ 0x0
  1771                           
  1772     0070                     ?_get_time:	
  1773                           ; 1 bytes @ 0x0
  1774                           
  1775     0070                     ?_display_time:	
  1776                           ; 1 bytes @ 0x0
  1777                           
  1778     0070                     ?_log_event:	
  1779                           ; 1 bytes @ 0x0
  1780                           
  1781     0070                     ?_isr:	
  1782                           ; 1 bytes @ 0x0
  1783                           
  1784     0070                     ?_i2c_write:	
  1785                           ; 1 bytes @ 0x0
  1786                           
  1787     0070                     ??_isr:	
  1788                           ; 2 bytes @ 0x0
  1789                           
  1790                           
  1791                           ; 1 bytes @ 0x0
  1792     0070                     	ds	2
  1793     0072                     ?_strcpy:
  1794     0072                     ?_strncpy:	
  1795                           ; 1 bytes @ 0x2
  1796                           
  1797     0072                     ?_clcd_write:	
  1798                           ; 1 bytes @ 0x2
  1799                           
  1800     0072                     ?___bmul:	
  1801                           ; 1 bytes @ 0x2
  1802                           
  1803     0072                     ?_strncmp:	
  1804                           ; 1 bytes @ 0x2
  1805                           
  1806     0072                     ?_read_adc:	
  1807                           ; 2 bytes @ 0x2
  1808                           
  1809     0072                     ?___wmul:	
  1810                           ; 2 bytes @ 0x2
  1811                           
  1812     0072                     ?___awdiv:	
  1813                           ; 2 bytes @ 0x2
  1814                           
  1815     0072                     ?___awmod:	
  1816                           ; 2 bytes @ 0x2
  1817                           
  1818     0072                     ?___lldiv:	
  1819                           ; 2 bytes @ 0x2
  1820                           
  1821     0072                     clcd_write@mode:	
  1822                           ; 4 bytes @ 0x2
  1823                           
  1824     0072                     i2c_read@ack:	
  1825                           ; 1 bytes @ 0x2
  1826                           
  1827     0072                     i2c_write@data:	
  1828                           ; 1 bytes @ 0x2
  1829                           
  1830     0072                     read_digital_keypad@key:	
  1831                           ; 1 bytes @ 0x2
  1832                           
  1833     0072                     putchar@data:	
  1834                           ; 1 bytes @ 0x2
  1835                           
  1836     0072                     ___bmul@multiplicand:	
  1837                           ; 1 bytes @ 0x2
  1838                           
  1839     0072                     strcpy@dest:	
  1840                           ; 1 bytes @ 0x2
  1841                           
  1842     0072                     strncmp@l:	
  1843                           ; 1 bytes @ 0x2
  1844                           
  1845     0072                     strncpy@d:	
  1846                           ; 1 bytes @ 0x2
  1847                           
  1848     0072                     ___wmul@multiplier:	
  1849                           ; 1 bytes @ 0x2
  1850                           
  1851     0072                     ___awdiv@divisor:	
  1852                           ; 2 bytes @ 0x2
  1853                           
  1854     0072                     ___awmod@divisor:	
  1855                           ; 2 bytes @ 0x2
  1856                           
  1857     0072                     ___lldiv@divisor:	
  1858                           ; 2 bytes @ 0x2
  1859                           
  1860     0072                     ??_i2c_start:	
  1861                           ; 4 bytes @ 0x2
  1862                           
  1863     0072                     ??_i2c_write:	
  1864                           ; 1 bytes @ 0x2
  1865                           
  1866     0072                     ??_i2c_rep_start:	
  1867                           ; 1 bytes @ 0x2
  1868                           
  1869     0072                     ??_i2c_read:	
  1870                           ; 1 bytes @ 0x2
  1871                           
  1872     0072                     ??_i2c_stop:	
  1873                           ; 1 bytes @ 0x2
  1874                           
  1875     0072                     ??_init_digital_keypad:	
  1876                           ; 1 bytes @ 0x2
  1877                           
  1878     0072                     ??_init_timer2:	
  1879                           ; 1 bytes @ 0x2
  1880                           
  1881     0072                     ??_read_digital_keypad:	
  1882                           ; 1 bytes @ 0x2
  1883                           
  1884     0072                     ??_putchar:	
  1885                           ; 1 bytes @ 0x2
  1886                           
  1887     0072                     ??_i2c_wait_for_idle:	
  1888                           ; 1 bytes @ 0x2
  1889                           
  1890     0072                     ??_init_adc:	
  1891                           ; 1 bytes @ 0x2
  1892                           
  1893                           
  1894                           ; 1 bytes @ 0x2
  1895     0072                     	ds	1
  1896     0073                     ?_write_ds1307:
  1897     0073                     ?_puts:	
  1898                           ; 1 bytes @ 0x3
  1899                           
  1900     0073                     ?_eeprom_at24c04_byte_write:	
  1901                           ; 1 bytes @ 0x3
  1902                           
  1903     0073                     write_ds1307@data:	
  1904                           ; 1 bytes @ 0x3
  1905                           
  1906     0073                     i2c_read@data:	
  1907                           ; 1 bytes @ 0x3
  1908                           
  1909     0073                     eeprom_at24c04_byte_write@data:	
  1910                           ; 1 bytes @ 0x3
  1911                           
  1912     0073                     ___bmul@product:	
  1913                           ; 1 bytes @ 0x3
  1914                           
  1915     0073                     strncmp@r:	
  1916                           ; 1 bytes @ 0x3
  1917                           
  1918     0073                     puts@s:	
  1919                           ; 1 bytes @ 0x3
  1920                           
  1921     0073                     strcpy@src:	
  1922                           ; 2 bytes @ 0x3
  1923                           
  1924     0073                     strncpy@s:	
  1925                           ; 2 bytes @ 0x3
  1926                           
  1927     0073                     ??_clcd_write:	
  1928                           ; 2 bytes @ 0x3
  1929                           
  1930     0073                     ??___bmul:	
  1931                           ; 1 bytes @ 0x3
  1932                           
  1933                           
  1934                           ; 1 bytes @ 0x3
  1935     0073                     	ds	1
  1936     0074                     read_ds1307@addr:
  1937     0074                     write_ds1307@addr:	
  1938                           ; 1 bytes @ 0x4
  1939                           
  1940     0074                     eeprom_at24c04_random_read@memory_loc:	
  1941                           ; 1 bytes @ 0x4
  1942                           
  1943     0074                     ___bmul@multiplier:	
  1944                           ; 1 bytes @ 0x4
  1945                           
  1946     0074                     read_adc@adc_reg_val:	
  1947                           ; 1 bytes @ 0x4
  1948                           
  1949     0074                     ___wmul@multiplicand:	
  1950                           ; 2 bytes @ 0x4
  1951                           
  1952     0074                     ___awdiv@dividend:	
  1953                           ; 2 bytes @ 0x4
  1954                           
  1955     0074                     ___awmod@dividend:	
  1956                           ; 2 bytes @ 0x4
  1957                           
  1958     0074                     strncmp@n:	
  1959                           ; 2 bytes @ 0x4
  1960                           
  1961     0074                     ??_read_ds1307:	
  1962                           ; 2 bytes @ 0x4
  1963                           
  1964     0074                     ??_write_ds1307:	
  1965                           ; 1 bytes @ 0x4
  1966                           
  1967     0074                     ??_eeprom_at24c04_random_read:	
  1968                           ; 1 bytes @ 0x4
  1969                           
  1970     0074                     ??_read_adc:	
  1971                           ; 1 bytes @ 0x4
  1972                           
  1973     0074                     ??_eeprom_at24c04_byte_write:	
  1974                           ; 1 bytes @ 0x4
  1975                           
  1976                           
  1977                           ; 1 bytes @ 0x4
  1978     0074                     	ds	1
  1979     0075                     clcd_write@byte:
  1980     0075                     read_ds1307@data:	
  1981                           ; 1 bytes @ 0x5
  1982                           
  1983     0075                     eeprom_at24c04_random_read@received_data:	
  1984                           ; 1 bytes @ 0x5
  1985                           
  1986     0075                     strncpy@n:	
  1987                           ; 1 bytes @ 0x5
  1988                           
  1989     0075                     ??_strcpy:	
  1990                           ; 2 bytes @ 0x5
  1991                           
  1992     0075                     ??_puts:	
  1993                           ; 1 bytes @ 0x5
  1994                           
  1995                           
  1996                           ; 1 bytes @ 0x5
  1997     0075                     	ds	1
  1998     0076                     ?_clcd_print:
  1999     0076                     ?___lwdiv:	
  2000                           ; 1 bytes @ 0x6
  2001                           
  2002     0076                     init_ds1307@dummy:	
  2003                           ; 2 bytes @ 0x6
  2004                           
  2005     0076                     eeprom_at24c04_byte_write@memory_loc:	
  2006                           ; 1 bytes @ 0x6
  2007                           
  2008     0076                     ___awdiv@counter:	
  2009                           ; 1 bytes @ 0x6
  2010                           
  2011     0076                     ___awmod@counter:	
  2012                           ; 1 bytes @ 0x6
  2013                           
  2014     0076                     clcd_print@str:	
  2015                           ; 1 bytes @ 0x6
  2016                           
  2017     0076                     ___wmul@product:	
  2018                           ; 2 bytes @ 0x6
  2019                           
  2020     0076                     ___lwdiv@divisor:	
  2021                           ; 2 bytes @ 0x6
  2022                           
  2023     0076                     ___lldiv@dividend:	
  2024                           ; 2 bytes @ 0x6
  2025                           
  2026     0076                     ??_clear_screen:	
  2027                           ; 4 bytes @ 0x6
  2028                           
  2029     0076                     ??_download_log:	
  2030                           ; 1 bytes @ 0x6
  2031                           
  2032     0076                     ??_strncmp:	
  2033                           ; 1 bytes @ 0x6
  2034                           
  2035     0076                     ??_init_display_controller:	
  2036                           ; 1 bytes @ 0x6
  2037                           
  2038     0076                     ??_init_ds1307:	
  2039                           ; 1 bytes @ 0x6
  2040                           
  2041     0076                     ??_get_time:	
  2042                           ; 1 bytes @ 0x6
  2043                           
  2044     0076                     ??___wmul:	
  2045                           ; 1 bytes @ 0x6
  2046                           
  2047     0076                     ??___awdiv:	
  2048                           ; 1 bytes @ 0x6
  2049                           
  2050     0076                     ??___awmod:	
  2051                           ; 1 bytes @ 0x6
  2052                           
  2053                           
  2054                           ; 1 bytes @ 0x6
  2055     0076                     	ds	1
  2056     0077                     ?_eeprom_at24c04_str_write:
  2057     0077                     ___awdiv@sign:	
  2058                           ; 1 bytes @ 0x7
  2059                           
  2060     0077                     ___awmod@sign:	
  2061                           ; 1 bytes @ 0x7
  2062                           
  2063     0077                     strcpy@d:	
  2064                           ; 1 bytes @ 0x7
  2065                           
  2066     0077                     eeprom_at24c04_str_write@data:	
  2067                           ; 1 bytes @ 0x7
  2068                           
  2069     0077                     ??_strncpy:	
  2070                           ; 2 bytes @ 0x7
  2071                           
  2072                           
  2073                           ; 1 bytes @ 0x7
  2074     0077                     	ds	1
  2075     0078                     clcd_print@addr:
  2076     0078                     ___awdiv@quotient:	
  2077                           ; 1 bytes @ 0x8
  2078                           
  2079     0078                     ___lwdiv@dividend:	
  2080                           ; 2 bytes @ 0x8
  2081                           
  2082     0078                     ??_init_clcd:	
  2083                           ; 2 bytes @ 0x8
  2084                           
  2085                           
  2086                           ; 1 bytes @ 0x8
  2087     0078                     	ds	1
  2088     0079                     clear_log@reset_memory:
  2089     0079                     eeprom_at24c04_str_write@memory_loc:	
  2090                           ; 1 bytes @ 0x9
  2091                           
  2092     0079                     strncpy@cp:	
  2093                           ; 1 bytes @ 0x9
  2094                           
  2095     0079                     ??_eeprom_at24c04_str_write:	
  2096                           ; 1 bytes @ 0x9
  2097                           
  2098     0079                     ??_clear_log:	
  2099                           ; 1 bytes @ 0x9
  2100                           
  2101     0079                     ??_clcd_print:	
  2102                           ; 1 bytes @ 0x9
  2103                           
  2104                           
  2105                           ; 1 bytes @ 0x9
  2106     0079                     	ds	1
  2107     007A                     ??_clcd_putch:
  2108     007A                     ??_init_config:	
  2109                           ; 1 bytes @ 0xA
  2110                           
  2111     007A                     ??_display_time:	
  2112                           ; 1 bytes @ 0xA
  2113                           
  2114     007A                     ??_log_event:	
  2115                           ; 1 bytes @ 0xA
  2116                           
  2117     007A                     ??___lwdiv:	
  2118                           ; 1 bytes @ 0xA
  2119                           
  2120     007A                     ??___lwmod:	
  2121                           ; 1 bytes @ 0xA
  2122                           
  2123                           
  2124                           	psect	cstackBANK0
  2125     0045                     __pcstackBANK0:	
  2126                           ; 1 bytes @ 0xA
  2127                           
  2128     0045                     log_event@addr:
  2129     0045                     ___lwdiv@counter:	
  2130                           ; 1 bytes @ 0x0
  2131                           
  2132     0045                     download_log@log:	
  2133                           ; 1 bytes @ 0x0
  2134                           
  2135     0045                     ??___lldiv:	
  2136                           ; 11 bytes @ 0x0
  2137                           
  2138                           
  2139                           ; 1 bytes @ 0x0
  2140     0045                     	ds	1
  2141     0046                     ?_log_car_event:
  2142     0046                     log_car_event@event:	
  2143                           ; 1 bytes @ 0x1
  2144                           
  2145     0046                     ___lwdiv@quotient:	
  2146                           ; 2 bytes @ 0x1
  2147                           
  2148     0046                     ___lldiv@quotient:	
  2149                           ; 2 bytes @ 0x1
  2150                           
  2151                           
  2152                           ; 4 bytes @ 0x1
  2153     0046                     	ds	2
  2154     0048                     ?___lwmod:
  2155     0048                     log_car_event@speed:	
  2156                           ; 2 bytes @ 0x3
  2157                           
  2158     0048                     ___lwmod@divisor:	
  2159                           ; 1 bytes @ 0x3
  2160                           
  2161                           
  2162                           ; 2 bytes @ 0x3
  2163     0048                     	ds	1
  2164     0049                     ??_log_car_event:
  2165                           
  2166                           ; 1 bytes @ 0x4
  2167     0049                     	ds	1
  2168     004A                     ___lldiv@counter:
  2169     004A                     ___lwmod@dividend:	
  2170                           ; 1 bytes @ 0x5
  2171                           
  2172                           
  2173                           ; 2 bytes @ 0x5
  2174     004A                     	ds	1
  2175     004B                     ?_init_uart:
  2176     004B                     ?_init_i2c:	
  2177                           ; 1 bytes @ 0x6
  2178                           
  2179     004B                     init_i2c@baud:	
  2180                           ; 1 bytes @ 0x6
  2181                           
  2182     004B                     init_uart@baud:	
  2183                           ; 4 bytes @ 0x6
  2184                           
  2185                           
  2186                           ; 4 bytes @ 0x6
  2187     004B                     	ds	1
  2188     004C                     ___lwmod@counter:
  2189                           
  2190                           ; 1 bytes @ 0x7
  2191     004C                     	ds	1
  2192     004D                     ?_clcd_putch:
  2193     004D                     clcd_putch@addr:	
  2194                           ; 1 bytes @ 0x8
  2195                           
  2196                           
  2197                           ; 1 bytes @ 0x8
  2198     004D                     	ds	1
  2199     004E                     clcd_putch@data:
  2200                           
  2201                           ; 1 bytes @ 0x9
  2202     004E                     	ds	1
  2203     004F                     ?_display_dashboard:
  2204     004F                     ?_login:	
  2205                           ; 1 bytes @ 0xA
  2206                           
  2207     004F                     ?_login_menu:	
  2208                           ; 1 bytes @ 0xA
  2209                           
  2210     004F                     ?_view_log:	
  2211                           ; 1 bytes @ 0xA
  2212                           
  2213     004F                     ?_change_password:	
  2214                           ; 1 bytes @ 0xA
  2215                           
  2216     004F                     ?_change_time:	
  2217                           ; 1 bytes @ 0xA
  2218                           
  2219     004F                     display_dashboard@event:	
  2220                           ; 1 bytes @ 0xA
  2221                           
  2222     004F                     login@reset_flag:	
  2223                           ; 1 bytes @ 0xA
  2224                           
  2225     004F                     login_menu@reset_flag:	
  2226                           ; 1 bytes @ 0xA
  2227                           
  2228     004F                     view_log@reset_index:	
  2229                           ; 1 bytes @ 0xA
  2230                           
  2231     004F                     change_password@reset_pwd:	
  2232                           ; 1 bytes @ 0xA
  2233                           
  2234     004F                     change_time@reset_time:	
  2235                           ; 1 bytes @ 0xA
  2236                           
  2237     004F                     ??_init_uart:	
  2238                           ; 1 bytes @ 0xA
  2239                           
  2240     004F                     ??_init_i2c:	
  2241                           ; 1 bytes @ 0xA
  2242                           
  2243                           
  2244                           ; 1 bytes @ 0xA
  2245     004F                     	ds	1
  2246     0050                     display_dashboard@speed:
  2247     0050                     download_log@add:	
  2248                           ; 1 bytes @ 0xB
  2249                           
  2250     0050                     ??_login:	
  2251                           ; 1 bytes @ 0xB
  2252                           
  2253     0050                     ??_login_menu:	
  2254                           ; 1 bytes @ 0xB
  2255                           
  2256     0050                     ??_view_log:	
  2257                           ; 1 bytes @ 0xB
  2258                           
  2259     0050                     ??_change_password:	
  2260                           ; 1 bytes @ 0xB
  2261                           
  2262     0050                     ??_change_time:	
  2263                           ; 1 bytes @ 0xB
  2264                           
  2265                           
  2266                           ; 1 bytes @ 0xB
  2267     0050                     	ds	1
  2268     0051                     download_log@position:
  2269     0051                     ??_display_dashboard:	
  2270                           ; 2 bytes @ 0xC
  2271                           
  2272                           
  2273                           ; 1 bytes @ 0xC
  2274     0051                     	ds	1
  2275     0052                     login_menu@key:
  2276     0052                     view_log@log:	
  2277                           ; 1 bytes @ 0xD
  2278                           
  2279                           
  2280                           ; 11 bytes @ 0xD
  2281     0052                     	ds	1
  2282     0053                     change_password@key:
  2283     0053                     change_time@key:	
  2284                           ; 1 bytes @ 0xE
  2285                           
  2286     0053                     download_log@index:	
  2287                           ; 1 bytes @ 0xE
  2288                           
  2289     0053                     _login$1107:	
  2290                           ; 2 bytes @ 0xE
  2291                           
  2292                           
  2293                           ; 2 bytes @ 0xE
  2294     0053                     	ds	1
  2295     0054                     change_time@buffer:
  2296                           
  2297                           ; 1 bytes @ 0xF
  2298     0054                     	ds	1
  2299     0055                     download_log@i:
  2300     0055                     login@spassword:	
  2301                           ; 2 bytes @ 0x10
  2302                           
  2303                           
  2304                           ; 4 bytes @ 0x10
  2305     0055                     	ds	4
  2306     0059                     login@key:
  2307                           
  2308                           ; 1 bytes @ 0x14
  2309     0059                     	ds	1
  2310     005A                     login@j:
  2311                           
  2312                           ; 2 bytes @ 0x15
  2313     005A                     	ds	3
  2314     005D                     view_log@position:
  2315                           
  2316                           ; 2 bytes @ 0x18
  2317     005D                     	ds	2
  2318     005F                     view_log@add:
  2319                           
  2320                           ; 1 bytes @ 0x1A
  2321     005F                     	ds	1
  2322     0060                     view_log@key:
  2323                           
  2324                           ; 1 bytes @ 0x1B
  2325     0060                     	ds	1
  2326     0061                     view_log@i:
  2327                           
  2328                           ; 2 bytes @ 0x1C
  2329     0061                     	ds	2
  2330     0063                     ??_main:
  2331                           
  2332                           ; 1 bytes @ 0x1E
  2333     0063                     	ds	3
  2334                           
  2335                           	psect	maintext
  2336     0040                     __pmaintext:	
  2337 ;;
  2338 ;;Main: autosize = 0, tempsize = 3, incstack = 0, save=0
  2339 ;;
  2340 ;; *************** function _main *****************
  2341 ;; Defined at:
  2342 ;;		line 51 in file "main.c"
  2343 ;; Parameters:    Size  Location     Type
  2344 ;;		None
  2345 ;; Auto vars:     Size  Location     Type
  2346 ;;  event           3    1[BANK1 ] unsigned char [3]
  2347 ;;  key             1    8[BANK1 ] unsigned char 
  2348 ;;  control_flag    1    7[BANK1 ] unsigned char 
  2349 ;;  speed           1    6[BANK1 ] unsigned char 
  2350 ;;  reset_flag      1    5[BANK1 ] unsigned char 
  2351 ;;  gr              1    4[BANK1 ] unsigned char 
  2352 ;;  menu_pos        1    0[BANK1 ] unsigned char 
  2353 ;; Return value:  Size  Location     Type
  2354 ;;                  1    wreg      void 
  2355 ;; Registers used:
  2356 ;;		wreg, fsr0l, fsr0h, status,2, status,0, btemp+1, pclath, cstack
  2357 ;; Tracked objects:
  2358 ;;		On entry : B00/0
  2359 ;;		On exit  : 0/0
  2360 ;;		Unchanged: 0/0
  2361 ;; Data sizes:     COMMON   BANK0   BANK1   BANK3   BANK2
  2362 ;;      Params:         0       0       0       0       0
  2363 ;;      Locals:         0       0       9       0       0
  2364 ;;      Temps:          0       3       0       0       0
  2365 ;;      Totals:         0       3       9       0       0
  2366 ;;Total ram usage:       12 bytes
  2367 ;; Hardware stack levels required when called: 8
  2368 ;; This function calls:
  2369 ;;		___lwdiv
  2370 ;;		_change_password
  2371 ;;		_change_time
  2372 ;;		_clcd_print
  2373 ;;		_clcd_write
  2374 ;;		_clear_log
  2375 ;;		_clear_screen
  2376 ;;		_display_dashboard
  2377 ;;		_download_log
  2378 ;;		_eeprom_at24c04_str_write
  2379 ;;		_init_config
  2380 ;;		_log_car_event
  2381 ;;		_login
  2382 ;;		_login_menu
  2383 ;;		_read_adc
  2384 ;;		_read_digital_keypad
  2385 ;;		_strcpy
  2386 ;;		_view_log
  2387 ;; This function is called by:
  2388 ;;		Startup code after reset
  2389 ;; This function uses a non-reentrant model
  2390 ;;
  2391                           
  2392     0040                     _main:	
  2393                           ;psect for function _main
  2394                           
  2395     0040                     l4728:	
  2396                           ;incstack = 0
  2397                           ; Regs used in _main: [wreg-fsr0h+status,2+status,0+btemp+1+pclath+cstack]
  2398                           
  2399                           
  2400                           ;main.c: 54: 
  2401     0040  3001               	movlw	1
  2402     0041  1683               	bsf	3,5	;RP0=1, select bank1
  2403     0042  1303               	bcf	3,6	;RP1=0, select bank1
  2404     0043  00D8               	movwf	main@control_flag^(0+128)
  2405     0044                     l4730:
  2406                           
  2407                           ;main.c: 55: 
  2408     0044  0836               	movf	main@F1249^(0+128),w
  2409     0045  00D2               	movwf	main@event^(0+128)
  2410     0046  0837               	movf	(main@F1249+1)^(0+128),w
  2411     0047  00D3               	movwf	(main@event+1)^(0+128)
  2412     0048  0838               	movf	(main@F1249+2)^(0+128),w
  2413     0049  00D4               	movwf	(main@event+2)^(0+128)
  2414     004A                     l4732:
  2415     004A                     l4734:
  2416                           
  2417                           ;main.c: 57: 
  2418     004A  01D5               	clrf	main@gr^(0+128)
  2419     004B                     l4736:
  2420                           
  2421                           ;main.c: 58: ;main.c: 59:         if (key == 0x3E);main.c: 60:         {;main.c: 62:    
      +                                   log_car_event(event, speed);
  2422     004B  160A  118A  24A8  120A  118A  	fcall	_init_config
  2423     0050                     l4738:
  2424                           
  2425                           ;main.c: 64: 
  2426     0050  30CD               	movlw	low (STR_7| (0+32768))
  2427     0051  00F7               	movwf	eeprom_at24c04_str_write@data
  2428     0052  3088               	movlw	high (STR_7| (0+32768))
  2429     0053  00F8               	movwf	eeprom_at24c04_str_write@data+1
  2430     0054  3000               	movlw	0
  2431     0055  160A  118A  22F9  120A  118A  	fcall	_eeprom_at24c04_str_write
  2432     005A                     l4740:
  2433                           
  2434                           ;main.c: 66:         {
  2435     005A  30D2               	movlw	(low (main@event| 0))& (0+255)
  2436     005B  1283               	bcf	3,5	;RP0=0, select bank0
  2437     005C  1303               	bcf	3,6	;RP1=0, select bank0
  2438     005D  00C6               	movwf	log_car_event@event
  2439     005E  3000               	movlw	0
  2440     005F  00C7               	movwf	log_car_event@event+1
  2441     0060  01C8               	clrf	log_car_event@speed
  2442     0061  160A  118A  2743  120A  118A  	fcall	_log_car_event
  2443     0066                     l4742:
  2444                           
  2445                           ;main.c: 69:             log_car_event(event, speed);;main.c: 70:         }
  2446     0066  300A               	movlw	10
  2447     0067  00F6               	movwf	___lwdiv@divisor
  2448     0068  3000               	movlw	0
  2449     0069  00F7               	movwf	___lwdiv@divisor+1
  2450     006A  160A  118A  21C8  120A  118A  	fcall	_read_adc
  2451     006F  0873               	movf	?_read_adc+1,w
  2452     0070  00F9               	movwf	___lwdiv@dividend+1
  2453     0071  0872               	movf	?_read_adc,w
  2454     0072  00F8               	movwf	___lwdiv@dividend
  2455     0073  160A  118A  2565  120A  118A  	fcall	___lwdiv
  2456     0078  0876               	movf	?___lwdiv,w
  2457     0079  1683               	bsf	3,5	;RP0=1, select bank1
  2458     007A  1303               	bcf	3,6	;RP1=0, select bank1
  2459     007B  00D7               	movwf	main@speed^(0+128)
  2460                           
  2461                           ;main.c: 73:         {
  2462     007C  3064               	movlw	100
  2463     007D  0257               	subwf	main@speed^(0+128),w
  2464     007E  1C03               	skipc
  2465     007F  2881               	goto	u4721
  2466     0080  2882               	goto	u4720
  2467     0081                     u4721:
  2468     0081  2884               	goto	l4746
  2469     0082                     u4720:
  2470     0082                     l4744:
  2471                           
  2472                           ;main.c: 74:             gr--;;main.c: 75:             strcpy(event, gear[gr]);
  2473     0082  3063               	movlw	99
  2474     0083  00D7               	movwf	main@speed^(0+128)
  2475     0084                     l4746:
  2476                           
  2477                           ;main.c: 80:         {
  2478     0084  120A  118A  264A  120A  118A  	fcall	_read_digital_keypad
  2479     0089  1683               	bsf	3,5	;RP0=1, select bank1
  2480     008A  1303               	bcf	3,6	;RP1=0, select bank1
  2481     008B  00D9               	movwf	main@key^(0+128)
  2482     008C                     l4748:
  2483                           
  2484                           ;main.c: 87:             _delay((unsigned long)((100)*(20000000/4000000.0)));
  2485     008C  303E               	movlw	62
  2486     008D  0659               	xorwf	main@key^(0+128),w
  2487     008E  1D03               	btfss	3,2
  2488     008F  2891               	goto	u4731
  2489     0090  2892               	goto	u4730
  2490     0091                     u4731:
  2491     0091  28AF               	goto	l4752
  2492     0092                     u4730:
  2493     0092                     l4750:
  2494                           
  2495                           ;main.c: 88: ;main.c: 89:             control_flag = 0x02;
  2496     0092  30D2               	movlw	(low (main@event| 0))& (0+255)
  2497     0093  00F2               	movwf	strcpy@dest
  2498     0094  30E7               	movlw	low (STR_8| (0+32768))
  2499     0095  00F3               	movwf	strcpy@src
  2500     0096  3088               	movlw	high (STR_8| (0+32768))
  2501     0097  00F4               	movwf	strcpy@src+1
  2502     0098  160A  118A  228D  120A  118A  	fcall	_strcpy
  2503                           
  2504                           ;main.c: 90: 
  2505     009D  30D2               	movlw	(low (main@event| 0))& (0+255)
  2506     009E  1283               	bcf	3,5	;RP0=0, select bank0
  2507     009F  1303               	bcf	3,6	;RP1=0, select bank0
  2508     00A0  00C6               	movwf	log_car_event@event
  2509     00A1  3000               	movlw	0
  2510     00A2  00C7               	movwf	log_car_event@event+1
  2511     00A3  1683               	bsf	3,5	;RP0=1, select bank1
  2512     00A4  1303               	bcf	3,6	;RP1=0, select bank1
  2513     00A5  0857               	movf	main@speed^(0+128),w
  2514     00A6  1283               	bcf	3,5	;RP0=0, select bank0
  2515     00A7  1303               	bcf	3,6	;RP1=0, select bank0
  2516     00A8  00C8               	movwf	log_car_event@speed
  2517     00A9  160A  118A  2743  120A  118A  	fcall	_log_car_event
  2518                           
  2519                           ;main.c: 91:             reset_flag = 0x60;
  2520     00AE  2B61               	goto	l4940
  2521     00AF                     l4752:
  2522     00AF  303D               	movlw	61
  2523     00B0  0659               	xorwf	main@key^(0+128),w
  2524     00B1  1D03               	btfss	3,2
  2525     00B2  28B4               	goto	u4741
  2526     00B3  28B5               	goto	u4740
  2527     00B4                     u4741:
  2528     00B4  28E6               	goto	l4762
  2529     00B5                     u4740:
  2530     00B5                     l4754:
  2531     00B5  3006               	movlw	6
  2532     00B6  0255               	subwf	main@gr^(0+128),w
  2533     00B7  1803               	skipnc
  2534     00B8  28BA               	goto	u4751
  2535     00B9  28BB               	goto	u4750
  2536     00BA                     u4751:
  2537     00BA  28E6               	goto	l4762
  2538     00BB                     u4750:
  2539     00BB                     l4756:
  2540                           
  2541                           ;main.c: 94:         };main.c: 95: 
  2542     00BB  30D2               	movlw	(low (main@event| 0))& (0+255)
  2543     00BC  00F2               	movwf	strcpy@dest
  2544     00BD  0855               	movf	main@gr^(0+128),w
  2545     00BE  1283               	bcf	3,5	;RP0=0, select bank0
  2546     00BF  1303               	bcf	3,6	;RP1=0, select bank0
  2547     00C0  00E3               	movwf	??_main
  2548     00C1  0763               	addwf	??_main,w
  2549     00C2  3EA0               	addlw	(low (_gear| 0))& (0+255)
  2550     00C3  0084               	movwf	4
  2551     00C4  1383               	bcf	3,7	;select IRP bank1
  2552     00C5  0800               	movf	0,w
  2553     00C6  00F3               	movwf	strcpy@src
  2554     00C7  0A84               	incf	4,f
  2555     00C8  0800               	movf	0,w
  2556     00C9  0384               	decf	4,f
  2557     00CA  00F4               	movwf	strcpy@src+1
  2558     00CB  160A  118A  228D  120A  118A  	fcall	_strcpy
  2559     00D0                     l4758:
  2560                           
  2561                           ;main.c: 96:         else if (key == 0x80 && control_flag == 0x03)
  2562     00D0  3001               	movlw	1
  2563     00D1  1683               	bsf	3,5	;RP0=1, select bank1
  2564     00D2  1303               	bcf	3,6	;RP1=0, select bank1
  2565     00D3  07D5               	addwf	main@gr^(0+128),f
  2566     00D4                     l4760:
  2567                           
  2568                           ;main.c: 97:         {
  2569     00D4  30D2               	movlw	(low (main@event| 0))& (0+255)
  2570     00D5  1283               	bcf	3,5	;RP0=0, select bank0
  2571     00D6  1303               	bcf	3,6	;RP1=0, select bank0
  2572     00D7  00C6               	movwf	log_car_event@event
  2573     00D8  3000               	movlw	0
  2574     00D9  00C7               	movwf	log_car_event@event+1
  2575     00DA  1683               	bsf	3,5	;RP0=1, select bank1
  2576     00DB  1303               	bcf	3,6	;RP1=0, select bank1
  2577     00DC  0857               	movf	main@speed^(0+128),w
  2578     00DD  1283               	bcf	3,5	;RP0=0, select bank0
  2579     00DE  1303               	bcf	3,6	;RP1=0, select bank0
  2580     00DF  00C8               	movwf	log_car_event@speed
  2581     00E0  160A  118A  2743  120A  118A  	fcall	_log_car_event
  2582                           
  2583                           ;main.c: 98:             switch (menu_pos)
  2584     00E5  2B61               	goto	l4940
  2585     00E6                     l4762:
  2586     00E6  303B               	movlw	59
  2587     00E7  0659               	xorwf	main@key^(0+128),w
  2588     00E8  1D03               	btfss	3,2
  2589     00E9  28EB               	goto	u4761
  2590     00EA  28EC               	goto	u4760
  2591     00EB                     u4761:
  2592     00EB  2909               	goto	l4772
  2593     00EC                     u4760:
  2594     00EC                     l4764:
  2595     00EC  0855               	movf	main@gr^(0+128),w
  2596     00ED  1903               	btfsc	3,2
  2597     00EE  28F0               	goto	u4771
  2598     00EF  28F1               	goto	u4770
  2599     00F0                     u4771:
  2600     00F0  2909               	goto	l4772
  2601     00F1                     u4770:
  2602     00F1                     l4766:
  2603                           
  2604                           ;main.c: 101: ;main.c: 102:                     clear_screen();
  2605     00F1  3001               	movlw	1
  2606     00F2  02D5               	subwf	main@gr^(0+128),f
  2607     00F3                     l4768:
  2608                           
  2609                           ;main.c: 103:                     clcd_print("      Logs      ", (0x80 + 0));
  2610     00F3  30D2               	movlw	(low (main@event| 0))& (0+255)
  2611     00F4  00F2               	movwf	strcpy@dest
  2612     00F5  0855               	movf	main@gr^(0+128),w
  2613     00F6  1283               	bcf	3,5	;RP0=0, select bank0
  2614     00F7  1303               	bcf	3,6	;RP1=0, select bank0
  2615     00F8  00E3               	movwf	??_main
  2616     00F9  0763               	addwf	??_main,w
  2617     00FA  3EA0               	addlw	(low (_gear| 0))& (0+255)
  2618     00FB  0084               	movwf	4
  2619     00FC  1383               	bcf	3,7	;select IRP bank1
  2620     00FD  0800               	movf	0,w
  2621     00FE  00F3               	movwf	strcpy@src
  2622     00FF  0A84               	incf	4,f
  2623     0100  0800               	movf	0,w
  2624     0101  0384               	decf	4,f
  2625     0102  00F4               	movwf	strcpy@src+1
  2626     0103  160A  118A  228D  120A  118A  	fcall	_strcpy
  2627     0108  28D4               	goto	l4760
  2628     0109                     l4772:
  2629     0109  3037               	movlw	55
  2630     010A  0659               	xorwf	main@key^(0+128),w
  2631     010B  1903               	btfsc	3,2
  2632     010C  290E               	goto	u4781
  2633     010D  290F               	goto	u4780
  2634     010E                     u4781:
  2635     010E  2915               	goto	l4776
  2636     010F                     u4780:
  2637     010F                     l4774:
  2638     010F  302F               	movlw	47
  2639     0110  0659               	xorwf	main@key^(0+128),w
  2640     0111  1D03               	btfss	3,2
  2641     0112  2914               	goto	u4791
  2642     0113  2915               	goto	u4790
  2643     0114                     u4791:
  2644     0114  2949               	goto	l4794
  2645     0115                     u4790:
  2646     0115                     l4776:
  2647     0115  0358               	decf	main@control_flag^(0+128),w
  2648     0116  1D03               	btfss	3,2
  2649     0117  2919               	goto	u4801
  2650     0118  291A               	goto	u4800
  2651     0119                     u4801:
  2652     0119  2949               	goto	l4794
  2653     011A                     u4800:
  2654     011A                     l4778:
  2655                           
  2656                           ;main.c: 108:                 case 1:;main.c: 109: 
  2657     011A  160A  118A  21A5  120A  118A  	fcall	_clear_screen
  2658     011F                     l4780:
  2659                           
  2660                           ;main.c: 111:                     control_flag = 0x09;
  2661     011F  3014               	movlw	low (STR_9| (0+32768))
  2662     0120  00F6               	movwf	clcd_print@str
  2663     0121  3088               	movlw	high (STR_9| (0+32768))
  2664     0122  00F7               	movwf	clcd_print@str+1
  2665     0123  3080               	movlw	128
  2666     0124  00F8               	movwf	clcd_print@addr
  2667     0125  160A  118A  23A5  120A  118A  	fcall	_clcd_print
  2668     012A                     l4782:
  2669                           
  2670                           ;main.c: 113:                     break;
  2671     012A  01F2               	clrf	clcd_write@mode
  2672     012B  30C6               	movlw	198
  2673     012C  160A  118A  224C  120A  118A  	fcall	_clcd_write
  2674     0131                     l4784:
  2675                           
  2676                           ;main.c: 114: 
  2677     0131  01F2               	clrf	clcd_write@mode
  2678     0132  300F               	movlw	15
  2679     0133  160A  118A  224C  120A  118A  	fcall	_clcd_write
  2680     0138                     l4786:
  2681                           
  2682                           ;main.c: 115:                 case 2:
  2683     0138  30A5               	movlw	165
  2684     0139  1283               	bcf	3,5	;RP0=0, select bank0
  2685     013A  1303               	bcf	3,6	;RP1=0, select bank0
  2686     013B  00E3               	movwf	??_main
  2687     013C                     u4927:
  2688     013C  0BE3               	decfsz	??_main,f
  2689     013D  293C               	goto	u4927
  2690     013E  293F               	nop2
  2691     013F                     l4788:
  2692                           
  2693                           ;main.c: 117:                     clear_screen();
  2694     013F  3002               	movlw	2
  2695     0140  1683               	bsf	3,5	;RP0=1, select bank1
  2696     0141  1303               	bcf	3,6	;RP1=0, select bank1
  2697     0142  00D8               	movwf	main@control_flag^(0+128)
  2698     0143                     l4790:
  2699                           
  2700                           ;main.c: 119:                     clcd_print("      Open      ", (0x80 + 0));
  2701     0143  3060               	movlw	96
  2702     0144  00D6               	movwf	main@reset_flag^(0+128)
  2703     0145                     l4792:
  2704                           
  2705                           ;main.c: 121:                     download_log();
  2706     0145  1283               	bcf	3,5	;RP0=0, select bank0
  2707     0146  1303               	bcf	3,6	;RP1=0, select bank0
  2708     0147  1512               	bsf	18,2	;volatile
  2709                           
  2710                           ;main.c: 122:                     _delay((unsigned long)((2000)*(20000000/4000.0)));
  2711     0148  2B61               	goto	l4940
  2712     0149                     l4794:
  2713     0149  3080               	movlw	128
  2714     014A  0659               	xorwf	main@key^(0+128),w
  2715     014B  1D03               	btfss	3,2
  2716     014C  294E               	goto	u4811
  2717     014D  294F               	goto	u4810
  2718     014E                     u4811:
  2719     014E  29F7               	goto	l4850
  2720     014F                     u4810:
  2721     014F                     l4796:
  2722     014F  3003               	movlw	3
  2723     0150  0658               	xorwf	main@control_flag^(0+128),w
  2724     0151  1D03               	btfss	3,2
  2725     0152  2954               	goto	u4821
  2726     0153  2955               	goto	u4820
  2727     0154                     u4821:
  2728     0154  29F7               	goto	l4850
  2729     0155                     u4820:
  2730     0155  29E6               	goto	l4848
  2731     0156                     l4800:
  2732                           
  2733                           ;main.c: 130:                     control_flag = 0x11;
  2734     0156  160A  118A  21A5  120A  118A  	fcall	_clear_screen
  2735     015B                     l4802:
  2736                           
  2737                           ;main.c: 131:                     reset_flag = 0x60;
  2738     015B  30F2               	movlw	low (STR_10| (0+32768))
  2739     015C  00F6               	movwf	clcd_print@str
  2740     015D  3087               	movlw	high (STR_10| (0+32768))
  2741     015E  00F7               	movwf	clcd_print@str+1
  2742     015F  3080               	movlw	128
  2743     0160  00F8               	movwf	clcd_print@addr
  2744     0161  160A  118A  23A5  120A  118A  	fcall	_clcd_print
  2745     0166                     l4804:
  2746                           
  2747                           ;main.c: 132:                     TMR2ON = 1;
  2748     0166  3008               	movlw	8
  2749     0167  1683               	bsf	3,5	;RP0=1, select bank1
  2750     0168  1303               	bcf	3,6	;RP1=0, select bank1
  2751     0169  00D8               	movwf	main@control_flag^(0+128)
  2752     016A                     l4806:
  2753                           
  2754                           ;main.c: 133:                     break;
  2755     016A  3020               	movlw	32
  2756     016B  00D6               	movwf	main@reset_flag^(0+128)
  2757                           
  2758                           ;main.c: 134: 
  2759     016C  2B61               	goto	l4940
  2760     016D                     l4808:
  2761                           
  2762                           ;main.c: 138:                     log_car_event("ST", speed);
  2763     016D  160A  118A  21A5  120A  118A  	fcall	_clear_screen
  2764     0172                     l4810:
  2765                           
  2766                           ;main.c: 139:                     control_flag = 0x12;
  2767     0172  3009               	movlw	9
  2768     0173  1683               	bsf	3,5	;RP0=1, select bank1
  2769     0174  1303               	bcf	3,6	;RP1=0, select bank1
  2770     0175  00D8               	movwf	main@control_flag^(0+128)
  2771     0176                     l4812:
  2772                           
  2773                           ;main.c: 140:                     reset_flag = 0x30;
  2774     0176  3040               	movlw	64
  2775     0177  00D6               	movwf	main@reset_flag^(0+128)
  2776                           
  2777                           ;main.c: 141:                     break;
  2778     0178  2B61               	goto	l4940
  2779     0179                     l4814:
  2780                           
  2781                           ;main.c: 145:         else if (key == 0x80 && control_flag == 0x08)
  2782     0179  160A  118A  21A5  120A  118A  	fcall	_clear_screen
  2783     017E                     l4816:
  2784                           
  2785                           ;main.c: 146:         {
  2786     017E  30E1               	movlw	low (STR_11| (0+32768))
  2787     017F  1283               	bcf	3,5	;RP0=0, select bank0
  2788     0180  1303               	bcf	3,6	;RP1=0, select bank0
  2789     0181  00C6               	movwf	log_car_event@event
  2790     0182  3088               	movlw	high (STR_11| (0+32768))
  2791     0183  00C7               	movwf	log_car_event@event+1
  2792     0184  1683               	bsf	3,5	;RP0=1, select bank1
  2793     0185  1303               	bcf	3,6	;RP1=0, select bank1
  2794     0186  0857               	movf	main@speed^(0+128),w
  2795     0187  1283               	bcf	3,5	;RP0=0, select bank0
  2796     0188  1303               	bcf	3,6	;RP1=0, select bank0
  2797     0189  00C8               	movwf	log_car_event@speed
  2798     018A  160A  118A  2743  120A  118A  	fcall	_log_car_event
  2799     018F                     l4818:
  2800                           
  2801                           ;main.c: 147:             control_flag = 0x03;
  2802     018F  30E1               	movlw	low (STR_12| (0+32768))
  2803     0190  00F6               	movwf	clcd_print@str
  2804     0191  3087               	movlw	high (STR_12| (0+32768))
  2805     0192  00F7               	movwf	clcd_print@str+1
  2806     0193  3080               	movlw	128
  2807     0194  00F8               	movwf	clcd_print@addr
  2808     0195  160A  118A  23A5  120A  118A  	fcall	_clcd_print
  2809     019A                     l4820:
  2810                           
  2811                           ;main.c: 148:             clear_screen();
  2812     019A  3003               	movlw	low (STR_13| (0+32768))
  2813     019B  00F6               	movwf	clcd_print@str
  2814     019C  3088               	movlw	high (STR_13| (0+32768))
  2815     019D  00F7               	movwf	clcd_print@str+1
  2816     019E  30C0               	movlw	192
  2817     019F  00F8               	movwf	clcd_print@addr
  2818     01A0  160A  118A  23A5  120A  118A  	fcall	_clcd_print
  2819     01A5                     l4822:
  2820                           
  2821                           ;main.c: 149:         }
  2822     01A5  120A  158A  2266  120A  118A  	fcall	_download_log
  2823     01AA                     l4824:
  2824                           
  2825                           ;main.c: 150: 
  2826     01AA  3033               	movlw	51
  2827     01AB  1283               	bcf	3,5	;RP0=0, select bank0
  2828     01AC  1303               	bcf	3,6	;RP1=0, select bank0
  2829     01AD  00E5               	movwf	??_main+2
  2830     01AE  30BB               	movlw	187
  2831     01AF  00E4               	movwf	??_main+1
  2832     01B0  30DF               	movlw	223
  2833     01B1  00E3               	movwf	??_main
  2834     01B2                     u4937:
  2835     01B2  0BE3               	decfsz	??_main,f
  2836     01B3  29B2               	goto	u4937
  2837     01B4  0BE4               	decfsz	??_main+1,f
  2838     01B5  29B2               	goto	u4937
  2839     01B6  0BE5               	decfsz	??_main+2,f
  2840     01B7  29B2               	goto	u4937
  2841     01B8                     l4826:
  2842                           
  2843                           ;main.c: 151:         else if (key == 0x80 && control_flag == 0x11)
  2844     01B8  3003               	movlw	3
  2845     01B9  1683               	bsf	3,5	;RP0=1, select bank1
  2846     01BA  1303               	bcf	3,6	;RP1=0, select bank1
  2847     01BB  00D8               	movwf	main@control_flag^(0+128)
  2848     01BC                     l4828:
  2849                           
  2850                           ;main.c: 152:         {
  2851     01BC  3050               	movlw	80
  2852     01BD  00D6               	movwf	main@reset_flag^(0+128)
  2853                           
  2854                           ;main.c: 153:             control_flag = 0x03;
  2855     01BE  2B61               	goto	l4940
  2856     01BF                     l4830:
  2857                           
  2858                           ;main.c: 157:         else if (key == 0x90 && control_flag == 0x03)
  2859     01BF  160A  118A  21A5  120A  118A  	fcall	_clear_screen
  2860     01C4                     l4832:
  2861                           
  2862                           ;main.c: 158:         {
  2863     01C4  3011               	movlw	17
  2864     01C5  1683               	bsf	3,5	;RP0=1, select bank1
  2865     01C6  1303               	bcf	3,6	;RP1=0, select bank1
  2866     01C7  00D8               	movwf	main@control_flag^(0+128)
  2867     01C8  2943               	goto	l4790
  2868     01C9                     l4838:
  2869                           
  2870                           ;main.c: 165: 
  2871     01C9  160A  118A  21A5  120A  118A  	fcall	_clear_screen
  2872     01CE                     l4840:
  2873                           
  2874                           ;main.c: 166: 
  2875     01CE  30F0               	movlw	low (STR_14| (0+32768))
  2876     01CF  1283               	bcf	3,5	;RP0=0, select bank0
  2877     01D0  1303               	bcf	3,6	;RP1=0, select bank0
  2878     01D1  00C6               	movwf	log_car_event@event
  2879     01D2  3088               	movlw	high (STR_14| (0+32768))
  2880     01D3  00C7               	movwf	log_car_event@event+1
  2881     01D4  1683               	bsf	3,5	;RP0=1, select bank1
  2882     01D5  1303               	bcf	3,6	;RP1=0, select bank1
  2883     01D6  0857               	movf	main@speed^(0+128),w
  2884     01D7  1283               	bcf	3,5	;RP0=0, select bank0
  2885     01D8  1303               	bcf	3,6	;RP1=0, select bank0
  2886     01D9  00C8               	movwf	log_car_event@speed
  2887     01DA  160A  118A  2743  120A  118A  	fcall	_log_car_event
  2888     01DF                     l4842:
  2889                           
  2890                           ;main.c: 167: 
  2891     01DF  3012               	movlw	18
  2892     01E0  1683               	bsf	3,5	;RP0=1, select bank1
  2893     01E1  1303               	bcf	3,6	;RP1=0, select bank1
  2894     01E2  00D8               	movwf	main@control_flag^(0+128)
  2895     01E3                     l4844:
  2896                           
  2897                           ;main.c: 168:         switch (control_flag)
  2898     01E3  3030               	movlw	48
  2899     01E4  00D6               	movwf	main@reset_flag^(0+128)
  2900                           
  2901                           ;main.c: 169:         {
  2902     01E5  2B61               	goto	l4940
  2903     01E6                     l4848:
  2904     01E6  0851               	movf	main@menu_pos^(0+128),w
  2905                           
  2906                           ; Switch size 1, requested type "simple"
  2907                           ; Number of cases is 5, Range of values is 0 to 4
  2908                           ; switch strategies available:
  2909                           ; Name         Instructions Cycles
  2910                           ; simple_byte           16     9 (average)
  2911                           ; direct_byte           23     8 (fixed)
  2912                           ; jumptable            260     6 (fixed)
  2913                           ;	Chosen strategy is simple_byte
  2914     01E7  3A00               	xorlw	0	; case 0
  2915     01E8  1903               	skipnz
  2916     01E9  2956               	goto	l4800
  2917     01EA  3A01               	xorlw	1	; case 1
  2918     01EB  1903               	skipnz
  2919     01EC  296D               	goto	l4808
  2920     01ED  3A03               	xorlw	3	; case 2
  2921     01EE  1903               	skipnz
  2922     01EF  2979               	goto	l4814
  2923     01F0  3A01               	xorlw	1	; case 3
  2924     01F1  1903               	skipnz
  2925     01F2  29BF               	goto	l4830
  2926     01F3  3A07               	xorlw	7	; case 4
  2927     01F4  1903               	skipnz
  2928     01F5  29C9               	goto	l4838
  2929     01F6  2B61               	goto	l4940
  2930     01F7                     l4850:
  2931     01F7  3080               	movlw	128
  2932     01F8  0659               	xorwf	main@key^(0+128),w
  2933     01F9  1D03               	btfss	3,2
  2934     01FA  29FC               	goto	u4831
  2935     01FB  29FD               	goto	u4830
  2936     01FC                     u4831:
  2937     01FC  2A0B               	goto	l4858
  2938     01FD                     u4830:
  2939     01FD                     l4852:
  2940     01FD  3008               	movlw	8
  2941     01FE  0658               	xorwf	main@control_flag^(0+128),w
  2942     01FF  1D03               	btfss	3,2
  2943     0200  2A02               	goto	u4841
  2944     0201  2A03               	goto	u4840
  2945     0202                     u4841:
  2946     0202  2A0B               	goto	l4858
  2947     0203                     u4840:
  2948     0203                     l4854:
  2949                           
  2950                           ;main.c: 174: ;main.c: 175:             case 0x02:
  2951     0203  3003               	movlw	3
  2952     0204  00D8               	movwf	main@control_flag^(0+128)
  2953     0205                     l4856:
  2954                           
  2955                           ;main.c: 176: 
  2956     0205  160A  118A  21A5  120A  118A  	fcall	_clear_screen
  2957                           
  2958                           ;main.c: 177:                 switch (login(key, reset_flag))
  2959     020A  2B61               	goto	l4940
  2960     020B                     l4858:
  2961     020B  3080               	movlw	128
  2962     020C  0659               	xorwf	main@key^(0+128),w
  2963     020D  1D03               	btfss	3,2
  2964     020E  2A10               	goto	u4851
  2965     020F  2A11               	goto	u4850
  2966     0210                     u4851:
  2967     0210  2A18               	goto	l4866
  2968     0211                     u4850:
  2969     0211                     l4860:
  2970     0211  3011               	movlw	17
  2971     0212  0658               	xorwf	main@control_flag^(0+128),w
  2972     0213  1D03               	btfss	3,2
  2973     0214  2A16               	goto	u4861
  2974     0215  2A17               	goto	u4860
  2975     0216                     u4861:
  2976     0216  2A18               	goto	l4866
  2977     0217                     u4860:
  2978     0217  2A03               	goto	l4854
  2979     0218                     l4866:
  2980     0218  3090               	movlw	144
  2981     0219  0659               	xorwf	main@key^(0+128),w
  2982     021A  1D03               	btfss	3,2
  2983     021B  2A1D               	goto	u4871
  2984     021C  2A1E               	goto	u4870
  2985     021D                     u4871:
  2986     021D  2A27               	goto	l205
  2987     021E                     u4870:
  2988     021E                     l4868:
  2989     021E  3003               	movlw	3
  2990     021F  0658               	xorwf	main@control_flag^(0+128),w
  2991     0220  1D03               	btfss	3,2
  2992     0221  2A23               	goto	u4881
  2993     0222  2A24               	goto	u4880
  2994     0223                     u4881:
  2995     0223  2A27               	goto	l205
  2996     0224                     u4880:
  2997     0224                     l4870:
  2998                           
  2999                           ;main.c: 186:                         break;;main.c: 187: 
  3000     0224  3001               	movlw	1
  3001     0225  00D8               	movwf	main@control_flag^(0+128)
  3002     0226  2A05               	goto	l4856
  3003     0227                     l205:
  3004     0227  2B61               	goto	l4940
  3005     0228                     l4874:
  3006                           
  3007                           ;main.c: 200:             case 0x03:
  3008     0228  30D2               	movlw	(low (main@event| 0))& (0+255)
  3009     0229  1283               	bcf	3,5	;RP0=0, select bank0
  3010     022A  1303               	bcf	3,6	;RP1=0, select bank0
  3011     022B  00CF               	movwf	display_dashboard@event
  3012     022C  1683               	bsf	3,5	;RP0=1, select bank1
  3013     022D  1303               	bcf	3,6	;RP1=0, select bank1
  3014     022E  0857               	movf	main@speed^(0+128),w
  3015     022F  1283               	bcf	3,5	;RP0=0, select bank0
  3016     0230  1303               	bcf	3,6	;RP1=0, select bank0
  3017     0231  00D0               	movwf	display_dashboard@speed
  3018     0232  160A  118A  2641  120A  118A  	fcall	_display_dashboard
  3019                           
  3020                           ;main.c: 201: 
  3021     0237  2B7A               	goto	l222
  3022     0238                     l225:	
  3023                           ;main.c: 206:                         control_flag = 0x01;;main.c: 207:                 
      +                                  TMR2ON = 0;
  3024                           
  3025                           
  3026                           ;main.c: 209: 
  3027     0238  3001               	movlw	1
  3028     0239  1683               	bsf	3,5	;RP0=1, select bank1
  3029     023A  1303               	bcf	3,6	;RP1=0, select bank1
  3030     023B  00D8               	movwf	main@control_flag^(0+128)
  3031                           
  3032                           ;main.c: 210:                     case 0:
  3033     023C  1283               	bcf	3,5	;RP0=0, select bank0
  3034     023D  1303               	bcf	3,6	;RP1=0, select bank0
  3035     023E  1112               	bcf	18,2	;volatile
  3036     023F                     l4876:
  3037                           
  3038                           ;main.c: 212:                         break;
  3039     023F  01F2               	clrf	clcd_write@mode
  3040     0240  300C               	movlw	12
  3041     0241  160A  118A  224C  120A  118A  	fcall	_clcd_write
  3042     0246                     l4878:
  3043                           
  3044                           ;main.c: 213: 
  3045     0246  30A5               	movlw	165
  3046     0247  1283               	bcf	3,5	;RP0=0, select bank0
  3047     0248  1303               	bcf	3,6	;RP1=0, select bank0
  3048     0249  00E3               	movwf	??_main
  3049     024A                     u4947:
  3050     024A  0BE3               	decfsz	??_main,f
  3051     024B  2A4A               	goto	u4947
  3052     024C  2A4D               	nop2
  3053                           
  3054                           ;main.c: 214:                     case 1:
  3055     024D  2B7A               	goto	l222
  3056     024E                     l227:	
  3057                           ;main.c: 216:                         break;
  3058                           
  3059                           
  3060                           ;main.c: 218:                     case 2:
  3061     024E  3003               	movlw	3
  3062     024F  1683               	bsf	3,5	;RP0=1, select bank1
  3063     0250  1303               	bcf	3,6	;RP1=0, select bank1
  3064     0251  00D8               	movwf	main@control_flag^(0+128)
  3065                           
  3066                           ;main.c: 219:                         menu_pos = 2;
  3067     0252  3070               	movlw	112
  3068     0253  00D6               	movwf	main@reset_flag^(0+128)
  3069                           
  3070                           ;main.c: 220:                         break;
  3071     0254  1283               	bcf	3,5	;RP0=0, select bank0
  3072     0255  1303               	bcf	3,6	;RP1=0, select bank0
  3073     0256  1512               	bsf	18,2	;volatile
  3074     0257                     l4880:
  3075                           
  3076                           ;main.c: 221: 
  3077     0257  01F2               	clrf	clcd_write@mode
  3078     0258  300C               	movlw	12
  3079     0259  160A  118A  224C  120A  118A  	fcall	_clcd_write
  3080     025E                     l4882:
  3081                           
  3082                           ;main.c: 222:                     case 3:
  3083     025E  30A5               	movlw	165
  3084     025F  1283               	bcf	3,5	;RP0=0, select bank0
  3085     0260  1303               	bcf	3,6	;RP1=0, select bank0
  3086     0261  00E3               	movwf	??_main
  3087     0262                     u4957:
  3088     0262  0BE3               	decfsz	??_main,f
  3089     0263  2A62               	goto	u4957
  3090     0264  2A65               	nop2
  3091                           
  3092                           ;main.c: 223:                         menu_pos = 3;
  3093     0265  2866               	goto	l4742
  3094     0266                     l4888:
  3095     0266  0856               	movf	main@reset_flag^(0+128),w
  3096     0267  1283               	bcf	3,5	;RP0=0, select bank0
  3097     0268  1303               	bcf	3,6	;RP1=0, select bank0
  3098     0269  00CF               	movwf	login@reset_flag
  3099     026A  1683               	bsf	3,5	;RP0=1, select bank1
  3100     026B  1303               	bcf	3,6	;RP1=0, select bank1
  3101     026C  0859               	movf	main@key^(0+128),w
  3102     026D  120A  158A  265F  120A  118A  	fcall	_login
  3103                           
  3104                           ; Switch size 1, requested type "simple"
  3105                           ; Number of cases is 2, Range of values is 10 to 11
  3106                           ; switch strategies available:
  3107                           ; Name         Instructions Cycles
  3108                           ; simple_byte            7     4 (average)
  3109                           ; direct_byte           17    11 (fixed)
  3110                           ; jumptable            263     9 (fixed)
  3111                           ;	Chosen strategy is simple_byte
  3112     0272  3A0A               	xorlw	10	; case 10
  3113     0273  1903               	skipnz
  3114     0274  2A38               	goto	l225
  3115     0275  3A01               	xorlw	1	; case 11
  3116     0276  1903               	skipnz
  3117     0277  2A4E               	goto	l227
  3118     0278  2B7A               	goto	l222
  3119     0279                     l4890:
  3120                           
  3121                           ;main.c: 233: 
  3122     0279  160A  118A  21A5  120A  118A  	fcall	_clear_screen
  3123     027E                     l4892:
  3124                           
  3125                           ;main.c: 234:                 view_log(key, reset_flag);
  3126     027E  3001               	movlw	1
  3127     027F  1683               	bsf	3,5	;RP0=1, select bank1
  3128     0280  1303               	bcf	3,6	;RP1=0, select bank1
  3129     0281  00D8               	movwf	main@control_flag^(0+128)
  3130     0282                     l4894:
  3131                           
  3132                           ;main.c: 235:                 break;
  3133     0282  1283               	bcf	3,5	;RP0=0, select bank0
  3134     0283  1303               	bcf	3,6	;RP1=0, select bank0
  3135     0284  1112               	bcf	18,2	;volatile
  3136                           
  3137                           ;main.c: 236: 
  3138     0285  2B7A               	goto	l222
  3139     0286                     l4896:
  3140                           
  3141                           ;main.c: 239:                 if (clear_log(reset_flag) == 0x0C)
  3142     0286  1683               	bsf	3,5	;RP0=1, select bank1
  3143     0287  1303               	bcf	3,6	;RP1=0, select bank1
  3144     0288  01D1               	clrf	main@menu_pos^(0+128)
  3145                           
  3146                           ;main.c: 240:                     _delay((unsigned long)((1000)*(20000000/4000.0)));
  3147     0289  2B7A               	goto	l222
  3148     028A                     l234:	
  3149                           ;main.c: 242:                 if (reset_flag == 0x40)
  3150                           
  3151                           
  3152                           ;main.c: 243:                     log_car_event("CL", speed);
  3153     028A  3001               	movlw	1
  3154     028B  1683               	bsf	3,5	;RP0=1, select bank1
  3155     028C  1303               	bcf	3,6	;RP1=0, select bank1
  3156     028D  00D1               	movwf	main@menu_pos^(0+128)
  3157                           
  3158                           ;main.c: 244: 
  3159     028E  2B7A               	goto	l222
  3160     028F                     l235:	
  3161                           ;main.c: 246:                 reset_flag = 0x50;
  3162                           
  3163                           
  3164                           ;main.c: 247:                 clear_screen();
  3165     028F  3002               	movlw	2
  3166     0290  1683               	bsf	3,5	;RP0=1, select bank1
  3167     0291  1303               	bcf	3,6	;RP1=0, select bank1
  3168     0292  00D1               	movwf	main@menu_pos^(0+128)
  3169                           
  3170                           ;main.c: 248:                 break;
  3171     0293  2B7A               	goto	l222
  3172     0294                     l236:	
  3173                           ;main.c: 250:             case 0x11:
  3174                           
  3175                           
  3176                           ;main.c: 251: 
  3177     0294  3003               	movlw	3
  3178     0295  1683               	bsf	3,5	;RP0=1, select bank1
  3179     0296  1303               	bcf	3,6	;RP1=0, select bank1
  3180     0297  00D1               	movwf	main@menu_pos^(0+128)
  3181                           
  3182                           ;main.c: 252:                 switch (change_password(key, reset_flag))
  3183     0298  2B7A               	goto	l222
  3184     0299                     l237:	
  3185                           ;main.c: 254:                     case 0x0C:
  3186                           
  3187                           
  3188                           ;main.c: 255:                         _delay((unsigned long)((1000)*(20000000/4000.0)));
  3189     0299  3004               	movlw	4
  3190     029A  1683               	bsf	3,5	;RP0=1, select bank1
  3191     029B  1303               	bcf	3,6	;RP1=0, select bank1
  3192     029C  00D1               	movwf	main@menu_pos^(0+128)
  3193                           
  3194                           ;main.c: 256:                         log_car_event("CP", speed);
  3195     029D  2B7A               	goto	l222
  3196     029E                     l4900:
  3197     029E  0856               	movf	main@reset_flag^(0+128),w
  3198     029F  1283               	bcf	3,5	;RP0=0, select bank0
  3199     02A0  1303               	bcf	3,6	;RP1=0, select bank0
  3200     02A1  00CF               	movwf	login_menu@reset_flag
  3201     02A2  1683               	bsf	3,5	;RP0=1, select bank1
  3202     02A3  1303               	bcf	3,6	;RP1=0, select bank1
  3203     02A4  0859               	movf	main@key^(0+128),w
  3204     02A5  120A  158A  21AF  120A  118A  	fcall	_login_menu
  3205                           
  3206                           ; Switch size 1, requested type "simple"
  3207                           ; Number of cases is 6, Range of values is 0 to 10
  3208                           ; switch strategies available:
  3209                           ; Name         Instructions Cycles
  3210                           ; simple_byte           19    10 (average)
  3211                           ; direct_byte           41     8 (fixed)
  3212                           ; jumptable            260     6 (fixed)
  3213                           ;	Chosen strategy is simple_byte
  3214     02AA  3A00               	xorlw	0	; case 0
  3215     02AB  1903               	skipnz
  3216     02AC  2A86               	goto	l4896
  3217     02AD  3A01               	xorlw	1	; case 1
  3218     02AE  1903               	skipnz
  3219     02AF  2A8A               	goto	l234
  3220     02B0  3A03               	xorlw	3	; case 2
  3221     02B1  1903               	skipnz
  3222     02B2  2A8F               	goto	l235
  3223     02B3  3A01               	xorlw	1	; case 3
  3224     02B4  1903               	skipnz
  3225     02B5  2A94               	goto	l236
  3226     02B6  3A07               	xorlw	7	; case 4
  3227     02B7  1903               	skipnz
  3228     02B8  2A99               	goto	l237
  3229     02B9  3A0E               	xorlw	14	; case 10
  3230     02BA  1903               	skipnz
  3231     02BB  2A79               	goto	l4890
  3232     02BC  2B7A               	goto	l222
  3233     02BD                     l4902:
  3234                           
  3235                           ;main.c: 262:                     case 0x0A:
  3236     02BD  0856               	movf	main@reset_flag^(0+128),w
  3237     02BE  1283               	bcf	3,5	;RP0=0, select bank0
  3238     02BF  1303               	bcf	3,6	;RP1=0, select bank0
  3239     02C0  00CF               	movwf	view_log@reset_index
  3240     02C1  1683               	bsf	3,5	;RP0=1, select bank1
  3241     02C2  1303               	bcf	3,6	;RP1=0, select bank1
  3242     02C3  0859               	movf	main@key^(0+128),w
  3243     02C4  120A  158A  2382  120A  118A  	fcall	_view_log
  3244                           
  3245                           ;main.c: 263:                         control_flag = 0x01;
  3246     02C9  2B7A               	goto	l222
  3247     02CA                     l4904:
  3248                           
  3249                           ;main.c: 267:                 break;
  3250     02CA  0856               	movf	main@reset_flag^(0+128),w
  3251     02CB  160A  118A  234F  120A  118A  	fcall	_clear_log
  3252     02D0  3A0C               	xorlw	12
  3253     02D1  1D03               	skipz
  3254     02D2  2AD4               	goto	u4891
  3255     02D3  2AD5               	goto	u4890
  3256     02D4                     u4891:
  3257     02D4  2AE4               	goto	l4908
  3258     02D5                     u4890:
  3259     02D5                     l4906:
  3260                           
  3261                           ;main.c: 268: 
  3262     02D5  301A               	movlw	26
  3263     02D6  1283               	bcf	3,5	;RP0=0, select bank0
  3264     02D7  1303               	bcf	3,6	;RP1=0, select bank0
  3265     02D8  00E5               	movwf	??_main+2
  3266     02D9  305E               	movlw	94
  3267     02DA  00E4               	movwf	??_main+1
  3268     02DB  306D               	movlw	109
  3269     02DC  00E3               	movwf	??_main
  3270     02DD                     u4967:
  3271     02DD  0BE3               	decfsz	??_main,f
  3272     02DE  2ADD               	goto	u4967
  3273     02DF  0BE4               	decfsz	??_main+1,f
  3274     02E0  2ADD               	goto	u4967
  3275     02E1  0BE5               	decfsz	??_main+2,f
  3276     02E2  2ADD               	goto	u4967
  3277     02E3  2AE4               	nop2
  3278     02E4                     l4908:
  3279                           
  3280                           ;main.c: 270: 
  3281     02E4  3040               	movlw	64
  3282     02E5  1683               	bsf	3,5	;RP0=1, select bank1
  3283     02E6  1303               	bcf	3,6	;RP1=0, select bank1
  3284     02E7  0656               	xorwf	main@reset_flag^(0+128),w
  3285     02E8  1D03               	btfss	3,2
  3286     02E9  2AEB               	goto	u4901
  3287     02EA  2AEC               	goto	u4900
  3288     02EB                     u4901:
  3289     02EB  2AFD               	goto	l4912
  3290     02EC                     u4900:
  3291     02EC                     l4910:
  3292                           
  3293                           ;main.c: 271:                 if (change_time(key, reset_flag) == 0x0C)
  3294     02EC  30DE               	movlw	low (STR_15| (0+32768))
  3295     02ED  1283               	bcf	3,5	;RP0=0, select bank0
  3296     02EE  1303               	bcf	3,6	;RP1=0, select bank0
  3297     02EF  00C6               	movwf	log_car_event@event
  3298     02F0  3088               	movlw	high (STR_15| (0+32768))
  3299     02F1  00C7               	movwf	log_car_event@event+1
  3300     02F2  1683               	bsf	3,5	;RP0=1, select bank1
  3301     02F3  1303               	bcf	3,6	;RP1=0, select bank1
  3302     02F4  0857               	movf	main@speed^(0+128),w
  3303     02F5  1283               	bcf	3,5	;RP0=0, select bank0
  3304     02F6  1303               	bcf	3,6	;RP1=0, select bank0
  3305     02F7  00C8               	movwf	log_car_event@speed
  3306     02F8  160A  118A  2743  120A  118A  	fcall	_log_car_event
  3307     02FD                     l4912:
  3308                           
  3309                           ;main.c: 273:                     control_flag = 0x03;
  3310     02FD  3003               	movlw	3
  3311     02FE  1683               	bsf	3,5	;RP0=1, select bank1
  3312     02FF  1303               	bcf	3,6	;RP1=0, select bank1
  3313     0300  00D8               	movwf	main@control_flag^(0+128)
  3314     0301                     l4914:
  3315                           
  3316                           ;main.c: 274:                     reset_flag = 0x50;
  3317     0301  3050               	movlw	80
  3318     0302  00D6               	movwf	main@reset_flag^(0+128)
  3319     0303                     l4916:
  3320                           
  3321                           ;main.c: 275:                     clear_screen();
  3322     0303  160A  118A  21A5  120A  118A  	fcall	_clear_screen
  3323                           
  3324                           ;main.c: 276:                     continue;
  3325     0308  2B7A               	goto	l222
  3326     0309                     l4918:
  3327                           
  3328                           ;main.c: 283:     return;
  3329     0309  301A               	movlw	26
  3330     030A  1283               	bcf	3,5	;RP0=0, select bank0
  3331     030B  1303               	bcf	3,6	;RP1=0, select bank0
  3332     030C  00E5               	movwf	??_main+2
  3333     030D  305E               	movlw	94
  3334     030E  00E4               	movwf	??_main+1
  3335     030F  306D               	movlw	109
  3336     0310  00E3               	movwf	??_main
  3337     0311                     u4977:
  3338     0311  0BE3               	decfsz	??_main,f
  3339     0312  2B11               	goto	u4977
  3340     0313  0BE4               	decfsz	??_main+1,f
  3341     0314  2B11               	goto	u4977
  3342     0315  0BE5               	decfsz	??_main+2,f
  3343     0316  2B11               	goto	u4977
  3344     0317  2B18               	nop2
  3345     0318                     l4920:
  3346                           
  3347                           ;main.c: 284: }
  3348     0318  30EA               	movlw	low (STR_16| (0+32768))
  3349     0319  1283               	bcf	3,5	;RP0=0, select bank0
  3350     031A  1303               	bcf	3,6	;RP1=0, select bank0
  3351     031B  00C6               	movwf	log_car_event@event
  3352     031C  3088               	movlw	high (STR_16| (0+32768))
  3353     031D  00C7               	movwf	log_car_event@event+1
  3354     031E  1683               	bsf	3,5	;RP0=1, select bank1
  3355     031F  1303               	bcf	3,6	;RP1=0, select bank1
  3356     0320  0857               	movf	main@speed^(0+128),w
  3357     0321  1283               	bcf	3,5	;RP0=0, select bank0
  3358     0322  1303               	bcf	3,6	;RP1=0, select bank0
  3359     0323  00C8               	movwf	log_car_event@speed
  3360     0324  160A  118A  2743  120A  118A  	fcall	_log_car_event
  3361     0329  2AFD               	goto	l4912
  3362     032A                     l246:
  3363     032A  3001               	movlw	1
  3364     032B  1683               	bsf	3,5	;RP0=1, select bank1
  3365     032C  1303               	bcf	3,6	;RP1=0, select bank1
  3366     032D  00D8               	movwf	main@control_flag^(0+128)
  3367     032E  3050               	movlw	80
  3368     032F  00D6               	movwf	main@reset_flag^(0+128)
  3369     0330  2B7A               	goto	l222
  3370     0331                     l4930:
  3371     0331  0856               	movf	main@reset_flag^(0+128),w
  3372     0332  1283               	bcf	3,5	;RP0=0, select bank0
  3373     0333  1303               	bcf	3,6	;RP1=0, select bank0
  3374     0334  00CF               	movwf	change_password@reset_pwd
  3375     0335  1683               	bsf	3,5	;RP0=1, select bank1
  3376     0336  1303               	bcf	3,6	;RP1=0, select bank1
  3377     0337  0859               	movf	main@key^(0+128),w
  3378     0338  120A  158A  24C2  120A  118A  	fcall	_change_password
  3379                           
  3380                           ; Switch size 1, requested type "simple"
  3381                           ; Number of cases is 2, Range of values is 10 to 12
  3382                           ; switch strategies available:
  3383                           ; Name         Instructions Cycles
  3384                           ; simple_byte            7     4 (average)
  3385                           ; direct_byte           20    11 (fixed)
  3386                           ; jumptable            263     9 (fixed)
  3387                           ;	Chosen strategy is simple_byte
  3388     033D  3A0A               	xorlw	10	; case 10
  3389     033E  1903               	skipnz
  3390     033F  2B2A               	goto	l246
  3391     0340  3A06               	xorlw	6	; case 12
  3392     0341  1903               	skipnz
  3393     0342  2B09               	goto	l4918
  3394     0343  2B7A               	goto	l222
  3395     0344                     l4932:
  3396     0344  0856               	movf	main@reset_flag^(0+128),w
  3397     0345  1283               	bcf	3,5	;RP0=0, select bank0
  3398     0346  1303               	bcf	3,6	;RP1=0, select bank0
  3399     0347  00CF               	movwf	change_time@reset_time
  3400     0348  1683               	bsf	3,5	;RP0=1, select bank1
  3401     0349  1303               	bcf	3,6	;RP1=0, select bank1
  3402     034A  0859               	movf	main@key^(0+128),w
  3403     034B  120A  118A  2382  120A  118A  	fcall	_change_time
  3404     0350  3A0C               	xorlw	12
  3405     0351  1D03               	skipz
  3406     0352  2B54               	goto	u4911
  3407     0353  2B55               	goto	u4910
  3408     0354                     u4911:
  3409     0354  2B7A               	goto	l222
  3410     0355                     u4910:
  3411     0355                     l4934:
  3412     0355  3003               	movlw	3
  3413     0356  1683               	bsf	3,5	;RP0=1, select bank1
  3414     0357  1303               	bcf	3,6	;RP1=0, select bank1
  3415     0358  00D8               	movwf	main@control_flag^(0+128)
  3416     0359  3050               	movlw	80
  3417     035A  00D6               	movwf	main@reset_flag^(0+128)
  3418     035B                     l4936:
  3419     035B  160A  118A  21A5  120A  118A  	fcall	_clear_screen
  3420     0360  2866               	goto	l4742
  3421     0361                     l4940:
  3422     0361  1683               	bsf	3,5	;RP0=1, select bank1
  3423     0362  1303               	bcf	3,6	;RP1=0, select bank1
  3424     0363  0858               	movf	main@control_flag^(0+128),w
  3425                           
  3426                           ; Switch size 1, requested type "simple"
  3427                           ; Number of cases is 7, Range of values is 1 to 18
  3428                           ; switch strategies available:
  3429                           ; Name         Instructions Cycles
  3430                           ; simple_byte           22    12 (average)
  3431                           ; direct_byte           65    11 (fixed)
  3432                           ; jumptable            263     9 (fixed)
  3433                           ;	Chosen strategy is simple_byte
  3434     0364  3A01               	xorlw	1	; case 1
  3435     0365  1903               	skipnz
  3436     0366  2A28               	goto	l4874
  3437     0367  3A03               	xorlw	3	; case 2
  3438     0368  1903               	skipnz
  3439     0369  2A66               	goto	l4888
  3440     036A  3A01               	xorlw	1	; case 3
  3441     036B  1903               	skipnz
  3442     036C  2A9E               	goto	l4900
  3443     036D  3A0B               	xorlw	11	; case 8
  3444     036E  1903               	skipnz
  3445     036F  2ABD               	goto	l4902
  3446     0370  3A01               	xorlw	1	; case 9
  3447     0371  1903               	skipnz
  3448     0372  2ACA               	goto	l4904
  3449     0373  3A18               	xorlw	24	; case 17
  3450     0374  1903               	skipnz
  3451     0375  2B31               	goto	l4930
  3452     0376  3A03               	xorlw	3	; case 18
  3453     0377  1903               	skipnz
  3454     0378  2B44               	goto	l4932
  3455     0379  2B7A               	goto	l222
  3456     037A                     l222:
  3457     037A  3080               	movlw	128
  3458     037B  1683               	bsf	3,5	;RP0=1, select bank1
  3459     037C  1303               	bcf	3,6	;RP1=0, select bank1
  3460     037D  00D6               	movwf	main@reset_flag^(0+128)
  3461     037E  2866               	goto	l4742
  3462     037F  120A  118A  280C   	ljmp	start
  3463     0382                     __end_of_main:
  3464                           
  3465                           	psect	text1
  3466     0B82                     __ptext1:	
  3467 ;; *************** function _view_log *****************
  3468 ;; Defined at:
  3469 ;;		line 334 in file "car_black_box.c"
  3470 ;; Parameters:    Size  Location     Type
  3471 ;;  key             1    wreg     unsigned char 
  3472 ;;  reset_index     1   10[BANK0 ] unsigned char 
  3473 ;; Auto vars:     Size  Location     Type
  3474 ;;  key             1   27[BANK0 ] unsigned char 
  3475 ;;  i               2   28[BANK0 ] int 
  3476 ;;  log            11   13[BANK0 ] unsigned char [11]
  3477 ;;  position        2   24[BANK0 ] int 
  3478 ;;  add             1   26[BANK0 ] unsigned char 
  3479 ;; Return value:  Size  Location     Type
  3480 ;;                  1    wreg      void 
  3481 ;; Registers used:
  3482 ;;		wreg, fsr0l, fsr0h, status,2, status,0, btemp+1, pclath, cstack
  3483 ;; Tracked objects:
  3484 ;;		On entry : 0/0
  3485 ;;		On exit  : 0/0
  3486 ;;		Unchanged: 0/0
  3487 ;; Data sizes:     COMMON   BANK0   BANK1   BANK3   BANK2
  3488 ;;      Params:         0       1       0       0       0
  3489 ;;      Locals:         0      17       0       0       0
  3490 ;;      Temps:          0       2       0       0       0
  3491 ;;      Totals:         0      20       0       0       0
  3492 ;;Total ram usage:       20 bytes
  3493 ;; Hardware stack levels used: 1
  3494 ;; Hardware stack levels required when called: 5
  3495 ;; This function calls:
  3496 ;;		___bmul
  3497 ;;		_clcd_print
  3498 ;;		_clcd_putch
  3499 ;;		_eeprom_at24c04_random_read
  3500 ;; This function is called by:
  3501 ;;		_main
  3502 ;; This function uses a non-reentrant model
  3503 ;;
  3504                           
  3505     0B82                     _view_log:	
  3506                           ;psect for function _view_log
  3507                           
  3508                           
  3509                           ;incstack = 0
  3510                           ; Regs used in _view_log: [wreg-fsr0h+status,2+status,0+btemp+1+pclath+cstack]
  3511                           ;view_log@key stored from wreg
  3512     0B82  1283               	bcf	3,5	;RP0=0, select bank0
  3513     0B83  1303               	bcf	3,6	;RP1=0, select bank0
  3514     0B84  00E0               	movwf	view_log@key
  3515     0B85                     l4440:
  3516                           
  3517                           ;car_black_box.c: 334: void view_log(unsigned char key, char reset_index);car_black_box.
      +                          c: 335: {;car_black_box.c: 336:     static int index;;car_black_box.c: 337:     char log
      +                          [11];;car_black_box.c: 338:     log[10] = 0;
  3518     0B85  01DC               	clrf	view_log@log+10
  3519     0B86                     l4442:
  3520                           
  3521                           ;car_black_box.c: 339:     int position;;car_black_box.c: 340:     unsigned char add;;ca
      +                          r_black_box.c: 344:     if (event_count == -1)
  3522     0B86  0A66               	incf	_event_count,w
  3523     0B87  1D03               	skipz
  3524     0B88  2B8D               	goto	u4371
  3525     0B89  0A67               	incf	_event_count+1,w
  3526     0B8A  1D03               	btfss	3,2
  3527     0B8B  2B8D               	goto	u4371
  3528     0B8C  2B8E               	goto	u4370
  3529     0B8D                     u4371:
  3530     0B8D  2BA5               	goto	l4446
  3531     0B8E                     u4370:
  3532     0B8E                     l4444:
  3533                           
  3534                           ;car_black_box.c: 345:     {;car_black_box.c: 346:         clcd_print("                "
      +                          , (0x80 + 0));
  3535     0B8E  3025               	movlw	low ((STR_43+1)| (0+32768))
  3536     0B8F  00F6               	movwf	clcd_print@str
  3537     0B90  3087               	movlw	high ((STR_43+1)| (0+32768))
  3538     0B91  00F7               	movwf	clcd_print@str+1
  3539     0B92  3080               	movlw	128
  3540     0B93  00F8               	movwf	clcd_print@addr
  3541     0B94  160A  118A  23A5  120A  158A  	fcall	_clcd_print
  3542                           
  3543                           ;car_black_box.c: 347:         clcd_print("    No logs     ", (0xC0 + 0));
  3544     0B99  3048               	movlw	low (STR_29| (0+32768))
  3545     0B9A  00F6               	movwf	clcd_print@str
  3546     0B9B  3087               	movlw	high (STR_29| (0+32768))
  3547     0B9C  00F7               	movwf	clcd_print@str+1
  3548     0B9D  30C0               	movlw	192
  3549     0B9E  00F8               	movwf	clcd_print@addr
  3550     0B9F  160A  118A  23A5  120A  158A  	fcall	_clcd_print
  3551                           
  3552                           ;car_black_box.c: 348:     }
  3553     0BA4  2CC1               	goto	l360
  3554     0BA5                     l4446:
  3555                           
  3556                           ;car_black_box.c: 350:     {;car_black_box.c: 351:         if (reset_index == 0x20)
  3557     0BA5  3020               	movlw	32
  3558     0BA6  064F               	xorwf	view_log@reset_index,w
  3559     0BA7  1D03               	btfss	3,2
  3560     0BA8  2BAA               	goto	u4381
  3561     0BA9  2BAB               	goto	u4380
  3562     0BAA                     u4381:
  3563     0BAA  2BAD               	goto	l4450
  3564     0BAB                     u4380:
  3565     0BAB                     l4448:
  3566                           
  3567                           ;car_black_box.c: 352:         {;car_black_box.c: 353:             index = 0;
  3568     0BAB  01B3               	clrf	view_log@index
  3569     0BAC  01B4               	clrf	view_log@index+1
  3570     0BAD                     l4450:
  3571                           
  3572                           ;car_black_box.c: 358:         if (key == 0x37 && index < event_count)
  3573     0BAD  3037               	movlw	55
  3574     0BAE  0660               	xorwf	view_log@key,w
  3575     0BAF  1D03               	btfss	3,2
  3576     0BB0  2BB2               	goto	u4391
  3577     0BB1  2BB3               	goto	u4390
  3578     0BB2                     u4391:
  3579     0BB2  2BD5               	goto	l4458
  3580     0BB3                     u4390:
  3581     0BB3                     l4452:
  3582     0BB3  0834               	movf	view_log@index+1,w
  3583     0BB4  3A80               	xorlw	128
  3584     0BB5  00D0               	movwf	??_view_log
  3585     0BB6  0867               	movf	_event_count+1,w
  3586     0BB7  3A80               	xorlw	128
  3587     0BB8  0250               	subwf	??_view_log,w
  3588     0BB9  1D03               	skipz
  3589     0BBA  2BBD               	goto	u4405
  3590     0BBB  0866               	movf	_event_count,w
  3591     0BBC  0233               	subwf	view_log@index,w
  3592     0BBD                     u4405:
  3593     0BBD  1803               	skipnc
  3594     0BBE  2BC0               	goto	u4401
  3595     0BBF  2BC1               	goto	u4400
  3596     0BC0                     u4401:
  3597     0BC0  2BD5               	goto	l4458
  3598     0BC1                     u4400:
  3599     0BC1                     l4454:
  3600                           
  3601                           ;car_black_box.c: 359:         {;car_black_box.c: 360:             index++;
  3602     0BC1  3001               	movlw	1
  3603     0BC2  1283               	bcf	3,5	;RP0=0, select bank0
  3604     0BC3  1303               	bcf	3,6	;RP1=0, select bank0
  3605     0BC4  07B3               	addwf	view_log@index,f
  3606     0BC5  1803               	skipnc
  3607     0BC6  0AB4               	incf	view_log@index+1,f
  3608     0BC7  3000               	movlw	0
  3609     0BC8  07B4               	addwf	view_log@index+1,f
  3610     0BC9                     l4456:
  3611                           
  3612                           ;car_black_box.c: 361:             clcd_print("                ", (0xC0 + 0));
  3613     0BC9  3025               	movlw	low ((STR_43+1)| (0+32768))
  3614     0BCA  00F6               	movwf	clcd_print@str
  3615     0BCB  3087               	movlw	high ((STR_43+1)| (0+32768))
  3616     0BCC  00F7               	movwf	clcd_print@str+1
  3617     0BCD  30C0               	movlw	192
  3618     0BCE  00F8               	movwf	clcd_print@addr
  3619     0BCF  160A  118A  23A5  120A  158A  	fcall	_clcd_print
  3620                           
  3621                           ;car_black_box.c: 362:         }
  3622     0BD4  2BFD               	goto	l4466
  3623     0BD5                     l4458:
  3624     0BD5  302F               	movlw	47
  3625     0BD6  1283               	bcf	3,5	;RP0=0, select bank0
  3626     0BD7  1303               	bcf	3,6	;RP1=0, select bank0
  3627     0BD8  0660               	xorwf	view_log@key,w
  3628     0BD9  1D03               	btfss	3,2
  3629     0BDA  2BDC               	goto	u4411
  3630     0BDB  2BDD               	goto	u4410
  3631     0BDC                     u4411:
  3632     0BDC  2BFD               	goto	l4466
  3633     0BDD                     u4410:
  3634     0BDD                     l4460:
  3635     0BDD  0834               	movf	view_log@index+1,w
  3636     0BDE  3A80               	xorlw	128
  3637     0BDF  00FF               	movwf	btemp+1
  3638     0BE0  3080               	movlw	128
  3639     0BE1  027F               	subwf	btemp+1,w
  3640     0BE2  1D03               	skipz
  3641     0BE3  2BE6               	goto	u4425
  3642     0BE4  3001               	movlw	1
  3643     0BE5  0233               	subwf	view_log@index,w
  3644     0BE6                     u4425:
  3645     0BE6  1C03               	skipc
  3646     0BE7  2BE9               	goto	u4421
  3647     0BE8  2BEA               	goto	u4420
  3648     0BE9                     u4421:
  3649     0BE9  2BFD               	goto	l4466
  3650     0BEA                     u4420:
  3651     0BEA                     l4462:
  3652                           
  3653                           ;car_black_box.c: 364:         {;car_black_box.c: 365:             index--;
  3654     0BEA  30FF               	movlw	255
  3655     0BEB  1283               	bcf	3,5	;RP0=0, select bank0
  3656     0BEC  1303               	bcf	3,6	;RP1=0, select bank0
  3657     0BED  07B3               	addwf	view_log@index,f
  3658     0BEE  1803               	skipnc
  3659     0BEF  0AB4               	incf	view_log@index+1,f
  3660     0BF0  30FF               	movlw	255
  3661     0BF1  07B4               	addwf	view_log@index+1,f
  3662     0BF2                     l4464:
  3663                           
  3664                           ;car_black_box.c: 366:             clcd_print("                ", (0xC0 + 0));
  3665     0BF2  3025               	movlw	low ((STR_43+1)| (0+32768))
  3666     0BF3  00F6               	movwf	clcd_print@str
  3667     0BF4  3087               	movlw	high ((STR_43+1)| (0+32768))
  3668     0BF5  00F7               	movwf	clcd_print@str+1
  3669     0BF6  30C0               	movlw	192
  3670     0BF7  00F8               	movwf	clcd_print@addr
  3671     0BF8  160A  118A  23A5  120A  158A  	fcall	_clcd_print
  3672     0BFD                     l4466:
  3673                           
  3674                           ;car_black_box.c: 371:         position = index;
  3675     0BFD  1283               	bcf	3,5	;RP0=0, select bank0
  3676     0BFE  1303               	bcf	3,6	;RP1=0, select bank0
  3677     0BFF  0834               	movf	view_log@index+1,w
  3678     0C00  00DE               	movwf	view_log@position+1
  3679     0C01  0833               	movf	view_log@index,w
  3680     0C02  00DD               	movwf	view_log@position
  3681     0C03                     l4468:
  3682                           
  3683                           ;car_black_box.c: 376:         for (int i = 0; i < 10; i++)
  3684     0C03  01E1               	clrf	view_log@i
  3685     0C04  01E2               	clrf	view_log@i+1
  3686     0C05                     l4474:
  3687                           
  3688                           ;car_black_box.c: 377:         {;car_black_box.c: 379:             add = position * 10 +
      +                           5 + i;
  3689     0C05  300A               	movlw	10
  3690     0C06  00F2               	movwf	___bmul@multiplicand
  3691     0C07  1283               	bcf	3,5	;RP0=0, select bank0
  3692     0C08  1303               	bcf	3,6	;RP1=0, select bank0
  3693     0C09  085D               	movf	view_log@position,w
  3694     0C0A  160A  118A  21DA  120A  158A  	fcall	___bmul
  3695     0C0F  1283               	bcf	3,5	;RP0=0, select bank0
  3696     0C10  1303               	bcf	3,6	;RP1=0, select bank0
  3697     0C11  0761               	addwf	view_log@i,w
  3698     0C12  3E05               	addlw	5
  3699     0C13  00DF               	movwf	view_log@add
  3700     0C14                     l4476:
  3701                           
  3702                           ;car_black_box.c: 380:             log[i] = eeprom_at24c04_random_read(add);
  3703     0C14  0861               	movf	view_log@i,w
  3704     0C15  3E52               	addlw	(low (view_log@log| 0))& (0+255)
  3705     0C16  0084               	movwf	4
  3706     0C17  085F               	movf	view_log@add,w
  3707     0C18  160A  118A  237A  120A  158A  	fcall	_eeprom_at24c04_random_read
  3708     0C1D  1383               	bcf	3,7	;select IRP bank0
  3709     0C1E  0080               	movwf	0
  3710     0C1F                     l4478:
  3711                           
  3712                           ;car_black_box.c: 381:         }
  3713     0C1F  3001               	movlw	1
  3714     0C20  1283               	bcf	3,5	;RP0=0, select bank0
  3715     0C21  1303               	bcf	3,6	;RP1=0, select bank0
  3716     0C22  07E1               	addwf	view_log@i,f
  3717     0C23  1803               	skipnc
  3718     0C24  0AE2               	incf	view_log@i+1,f
  3719     0C25  3000               	movlw	0
  3720     0C26  07E2               	addwf	view_log@i+1,f
  3721     0C27                     l4480:
  3722     0C27  0862               	movf	view_log@i+1,w
  3723     0C28  3A80               	xorlw	128
  3724     0C29  00FF               	movwf	btemp+1
  3725     0C2A  3080               	movlw	128
  3726     0C2B  027F               	subwf	btemp+1,w
  3727     0C2C  1D03               	skipz
  3728     0C2D  2C30               	goto	u4435
  3729     0C2E  300A               	movlw	10
  3730     0C2F  0261               	subwf	view_log@i,w
  3731     0C30                     u4435:
  3732     0C30  1C03               	skipc
  3733     0C31  2C33               	goto	u4431
  3734     0C32  2C34               	goto	u4430
  3735     0C33                     u4431:
  3736     0C33  2C05               	goto	l4474
  3737     0C34                     u4430:
  3738     0C34                     l4482:
  3739                           
  3740                           ;car_black_box.c: 387:         clcd_putch(index + '0', (0xC0 + 0));
  3741     0C34  30C0               	movlw	192
  3742     0C35  1283               	bcf	3,5	;RP0=0, select bank0
  3743     0C36  1303               	bcf	3,6	;RP1=0, select bank0
  3744     0C37  00CD               	movwf	clcd_putch@addr
  3745     0C38  0833               	movf	view_log@index,w
  3746     0C39  3E30               	addlw	48
  3747     0C3A  160A  118A  2200  120A  158A  	fcall	_clcd_putch
  3748                           
  3749                           ;car_black_box.c: 390:         clcd_putch(log[0], (0xC0 + 2));
  3750     0C3F  30C2               	movlw	194
  3751     0C40  1283               	bcf	3,5	;RP0=0, select bank0
  3752     0C41  1303               	bcf	3,6	;RP1=0, select bank0
  3753     0C42  00CD               	movwf	clcd_putch@addr
  3754     0C43  0852               	movf	view_log@log,w
  3755     0C44  160A  118A  2200  120A  158A  	fcall	_clcd_putch
  3756                           
  3757                           ;car_black_box.c: 391:         clcd_putch(log[1], (0xC0 + 3));
  3758     0C49  30C3               	movlw	195
  3759     0C4A  1283               	bcf	3,5	;RP0=0, select bank0
  3760     0C4B  1303               	bcf	3,6	;RP1=0, select bank0
  3761     0C4C  00CD               	movwf	clcd_putch@addr
  3762     0C4D  0853               	movf	view_log@log+1,w
  3763     0C4E  160A  118A  2200  120A  158A  	fcall	_clcd_putch
  3764                           
  3765                           ;car_black_box.c: 392:         clcd_putch(':', (0xC0 + 4));
  3766     0C53  30C4               	movlw	196
  3767     0C54  1283               	bcf	3,5	;RP0=0, select bank0
  3768     0C55  1303               	bcf	3,6	;RP1=0, select bank0
  3769     0C56  00CD               	movwf	clcd_putch@addr
  3770     0C57  303A               	movlw	58
  3771     0C58  160A  118A  2200  120A  158A  	fcall	_clcd_putch
  3772                           
  3773                           ;car_black_box.c: 395:         clcd_putch(log[2], (0xC0 + 5));
  3774     0C5D  30C5               	movlw	197
  3775     0C5E  1283               	bcf	3,5	;RP0=0, select bank0
  3776     0C5F  1303               	bcf	3,6	;RP1=0, select bank0
  3777     0C60  00CD               	movwf	clcd_putch@addr
  3778     0C61  0854               	movf	view_log@log+2,w
  3779     0C62  160A  118A  2200  120A  158A  	fcall	_clcd_putch
  3780                           
  3781                           ;car_black_box.c: 396:         clcd_putch(log[3], (0xC0 + 6));
  3782     0C67  30C6               	movlw	198
  3783     0C68  1283               	bcf	3,5	;RP0=0, select bank0
  3784     0C69  1303               	bcf	3,6	;RP1=0, select bank0
  3785     0C6A  00CD               	movwf	clcd_putch@addr
  3786     0C6B  0855               	movf	view_log@log+3,w
  3787     0C6C  160A  118A  2200  120A  158A  	fcall	_clcd_putch
  3788                           
  3789                           ;car_black_box.c: 397:         clcd_putch(':', (0xC0 + 7));
  3790     0C71  30C7               	movlw	199
  3791     0C72  1283               	bcf	3,5	;RP0=0, select bank0
  3792     0C73  1303               	bcf	3,6	;RP1=0, select bank0
  3793     0C74  00CD               	movwf	clcd_putch@addr
  3794     0C75  303A               	movlw	58
  3795     0C76  160A  118A  2200  120A  158A  	fcall	_clcd_putch
  3796                           
  3797                           ;car_black_box.c: 400:         clcd_putch(log[4], (0xC0 + 8));
  3798     0C7B  30C8               	movlw	200
  3799     0C7C  1283               	bcf	3,5	;RP0=0, select bank0
  3800     0C7D  1303               	bcf	3,6	;RP1=0, select bank0
  3801     0C7E  00CD               	movwf	clcd_putch@addr
  3802     0C7F  0856               	movf	view_log@log+4,w
  3803     0C80  160A  118A  2200  120A  158A  	fcall	_clcd_putch
  3804                           
  3805                           ;car_black_box.c: 401:         clcd_putch(log[5], (0xC0 + 9));
  3806     0C85  30C9               	movlw	201
  3807     0C86  1283               	bcf	3,5	;RP0=0, select bank0
  3808     0C87  1303               	bcf	3,6	;RP1=0, select bank0
  3809     0C88  00CD               	movwf	clcd_putch@addr
  3810     0C89  0857               	movf	view_log@log+5,w
  3811     0C8A  160A  118A  2200  120A  158A  	fcall	_clcd_putch
  3812                           
  3813                           ;car_black_box.c: 404:         clcd_putch(log[6], (0xC0 + 11));
  3814     0C8F  30CB               	movlw	203
  3815     0C90  1283               	bcf	3,5	;RP0=0, select bank0
  3816     0C91  1303               	bcf	3,6	;RP1=0, select bank0
  3817     0C92  00CD               	movwf	clcd_putch@addr
  3818     0C93  0858               	movf	view_log@log+6,w
  3819     0C94  160A  118A  2200  120A  158A  	fcall	_clcd_putch
  3820                           
  3821                           ;car_black_box.c: 405:         clcd_putch(log[7], (0xC0 + 12));
  3822     0C99  30CC               	movlw	204
  3823     0C9A  1283               	bcf	3,5	;RP0=0, select bank0
  3824     0C9B  1303               	bcf	3,6	;RP1=0, select bank0
  3825     0C9C  00CD               	movwf	clcd_putch@addr
  3826     0C9D  0859               	movf	view_log@log+7,w
  3827     0C9E  160A  118A  2200  120A  158A  	fcall	_clcd_putch
  3828                           
  3829                           ;car_black_box.c: 408:         clcd_putch(log[8], (0xC0 + 14));
  3830     0CA3  30CE               	movlw	206
  3831     0CA4  1283               	bcf	3,5	;RP0=0, select bank0
  3832     0CA5  1303               	bcf	3,6	;RP1=0, select bank0
  3833     0CA6  00CD               	movwf	clcd_putch@addr
  3834     0CA7  085A               	movf	view_log@log+8,w
  3835     0CA8  160A  118A  2200  120A  158A  	fcall	_clcd_putch
  3836                           
  3837                           ;car_black_box.c: 409:         clcd_putch(log[9], (0xC0 + 15));
  3838     0CAD  30CF               	movlw	207
  3839     0CAE  1283               	bcf	3,5	;RP0=0, select bank0
  3840     0CAF  1303               	bcf	3,6	;RP1=0, select bank0
  3841     0CB0  00CD               	movwf	clcd_putch@addr
  3842     0CB1  085B               	movf	view_log@log+9,w
  3843     0CB2  160A  118A  2200  120A  158A  	fcall	_clcd_putch
  3844     0CB7                     l4484:
  3845                           
  3846                           ;car_black_box.c: 411:         _delay((unsigned long)((500)*(20000000/4000000.0)));
  3847     0CB7  3004               	movlw	4
  3848     0CB8  1283               	bcf	3,5	;RP0=0, select bank0
  3849     0CB9  1303               	bcf	3,6	;RP1=0, select bank0
  3850     0CBA  00D1               	movwf	??_view_log+1
  3851     0CBB  303D               	movlw	61
  3852     0CBC  00D0               	movwf	??_view_log
  3853     0CBD                     u4987:
  3854     0CBD  0BD0               	decfsz	??_view_log,f
  3855     0CBE  2CBD               	goto	u4987
  3856     0CBF  0BD1               	decfsz	??_view_log+1,f
  3857     0CC0  2CBD               	goto	u4987
  3858     0CC1                     l360:
  3859     0CC1  0008               	return
  3860     0CC2                     __end_of_view_log:
  3861                           
  3862                           	psect	text2
  3863     128D                     __ptext2:	
  3864 ;; *************** function _strcpy *****************
  3865 ;; Defined at:
  3866 ;;		line 3 in file "C:\Program Files\Microchip\xc8\v2.50\pic\sources\c99\common\strcpy.c"
  3867 ;; Parameters:    Size  Location     Type
  3868 ;;  dest            1    2[COMMON] PTR unsigned char 
  3869 ;;		 -> main@event(3), 
  3870 ;;  src             2    3[COMMON] PTR const unsigned char 
  3871 ;;		 -> STR_8(3), STR_6(3), STR_5(3), STR_4(3), 
  3872 ;;		 -> STR_3(3), STR_2(3), STR_1(3), 
  3873 ;; Auto vars:     Size  Location     Type
  3874 ;;  d               1    7[COMMON] PTR unsigned char 
  3875 ;;		 -> main@event(3), 
  3876 ;; Return value:  Size  Location     Type
  3877 ;;                  1    2[COMMON] PTR unsigned char 
  3878 ;; Registers used:
  3879 ;;		wreg, fsr0l, fsr0h, status,2, status,0, btemp+1, pclath
  3880 ;; Tracked objects:
  3881 ;;		On entry : 0/0
  3882 ;;		On exit  : 0/0
  3883 ;;		Unchanged: 0/0
  3884 ;; Data sizes:     COMMON   BANK0   BANK1   BANK3   BANK2
  3885 ;;      Params:         3       0       0       0       0
  3886 ;;      Locals:         1       0       0       0       0
  3887 ;;      Temps:          2       0       0       0       0
  3888 ;;      Totals:         6       0       0       0       0
  3889 ;;Total ram usage:        6 bytes
  3890 ;; Hardware stack levels used: 2
  3891 ;; Hardware stack levels required when called: 1
  3892 ;; This function calls:
  3893 ;;		Nothing
  3894 ;; This function is called by:
  3895 ;;		_main
  3896 ;; This function uses a non-reentrant model
  3897 ;;
  3898                           
  3899     128D                     _strcpy:	
  3900                           ;psect for function _strcpy
  3901                           
  3902     128D                     l4204:	
  3903                           ;incstack = 0
  3904                           ; Regs used in _strcpy: [wreg-fsr0h+status,2+status,0+btemp+1+pclath]
  3905                           
  3906     128D  0872               	movf	strcpy@dest,w
  3907     128E  00F7               	movwf	strcpy@d
  3908     128F                     l4206:
  3909     128F  0874               	movf	strcpy@src+1,w
  3910     1290  00F6               	movwf	??_strcpy+1
  3911     1291  0873               	movf	strcpy@src,w
  3912     1292  00F5               	movwf	??_strcpy
  3913     1293  0AF3               	incf	strcpy@src,f
  3914     1294  1903               	skipnz
  3915     1295  0AF4               	incf	strcpy@src+1,f
  3916     1296  0876               	movf	??_strcpy+1,w
  3917     1297  1283               	bcf	3,5	;RP0=0, select bank0
  3918     1298  1303               	bcf	3,6	;RP1=0, select bank0
  3919     1299  00FF               	movwf	btemp+1
  3920     129A  0875               	movf	??_strcpy,w
  3921     129B  0084               	movwf	4
  3922     129C  160A  118A  2000  160A  118A  	fcall	stringtab
  3923     12A1  00FF               	movwf	btemp+1
  3924     12A2  0877               	movf	strcpy@d,w
  3925     12A3  0AF7               	incf	strcpy@d,f
  3926     12A4  0084               	movwf	4
  3927     12A5  087F               	movf	btemp+1,w
  3928     12A6  1383               	bcf	3,7	;select IRP bank0
  3929     12A7  0080               	movwf	0
  3930     12A8  0800               	movf	0,w
  3931     12A9  1D03               	btfss	3,2
  3932     12AA  2AAC               	goto	u4141
  3933     12AB  2AAD               	goto	u4140
  3934     12AC                     u4141:
  3935     12AC  2A8F               	goto	l4206
  3936     12AD                     u4140:
  3937     12AD                     l1099:
  3938     12AD  0008               	return
  3939     12AE                     __end_of_strcpy:
  3940                           
  3941                           	psect	text3
  3942     064A                     __ptext3:	
  3943 ;; *************** function _read_digital_keypad *****************
  3944 ;; Defined at:
  3945 ;;		line 10 in file "digital_keypad.c"
  3946 ;; Parameters:    Size  Location     Type
  3947 ;;		None
  3948 ;; Auto vars:     Size  Location     Type
  3949 ;;  key             1    2[COMMON] unsigned char 
  3950 ;; Return value:  Size  Location     Type
  3951 ;;                  1    wreg      unsigned char 
  3952 ;; Registers used:
  3953 ;;		wreg, status,2, status,0, btemp+1
  3954 ;; Tracked objects:
  3955 ;;		On entry : 0/0
  3956 ;;		On exit  : 0/0
  3957 ;;		Unchanged: 0/0
  3958 ;; Data sizes:     COMMON   BANK0   BANK1   BANK3   BANK2
  3959 ;;      Params:         0       0       0       0       0
  3960 ;;      Locals:         1       0       0       0       0
  3961 ;;      Temps:          0       0       0       0       0
  3962 ;;      Totals:         1       0       0       0       0
  3963 ;;Total ram usage:        1 bytes
  3964 ;; Hardware stack levels used: 1
  3965 ;; Hardware stack levels required when called: 1
  3966 ;; This function calls:
  3967 ;;		Nothing
  3968 ;; This function is called by:
  3969 ;;		_main
  3970 ;; This function uses a non-reentrant model
  3971 ;;
  3972                           
  3973     064A                     _read_digital_keypad:	
  3974                           ;psect for function _read_digital_keypad
  3975                           
  3976     064A                     l4146:	
  3977                           ;incstack = 0
  3978                           ; Regs used in _read_digital_keypad: [wreg+status,2+status,0+btemp+1]
  3979                           
  3980                           
  3981                           ;digital_keypad.c: 12:     static char once;;digital_keypad.c: 13:     static int long_p
      +                          ressed;;digital_keypad.c: 14:     static unsigned char pre_key;;digital_keypad.c: 15:   
      +                            unsigned char key = PORTB & 0x3F;
  3982     064A  1283               	bcf	3,5	;RP0=0, select bank0
  3983     064B  1303               	bcf	3,6	;RP1=0, select bank0
  3984     064C  0806               	movf	6,w	;volatile
  3985     064D  00F2               	movwf	read_digital_keypad@key
  3986     064E                     l4148:
  3987     064E  303F               	movlw	63
  3988     064F  05F2               	andwf	read_digital_keypad@key,f
  3989     0650                     l4150:
  3990                           
  3991                           ;digital_keypad.c: 18:     if (key != 0x3F && once == 0)
  3992     0650  303F               	movlw	63
  3993     0651  0672               	xorwf	read_digital_keypad@key,w
  3994     0652  1903               	btfsc	3,2
  3995     0653  2E55               	goto	u4011
  3996     0654  2E56               	goto	u4010
  3997     0655                     u4011:
  3998     0655  2E62               	goto	l4160
  3999     0656                     u4010:
  4000     0656                     l4152:
  4001     0656  087A               	movf	read_digital_keypad@once,w
  4002     0657  1D03               	btfss	3,2
  4003     0658  2E5A               	goto	u4021
  4004     0659  2E5B               	goto	u4020
  4005     065A                     u4021:
  4006     065A  2E62               	goto	l4160
  4007     065B                     u4020:
  4008     065B                     l4154:
  4009                           
  4010                           ;digital_keypad.c: 19:     {;digital_keypad.c: 20:         once = 1;
  4011     065B  3001               	movlw	1
  4012     065C  00FA               	movwf	read_digital_keypad@once
  4013     065D                     l4156:
  4014                           
  4015                           ;digital_keypad.c: 21:         long_pressed = 0;
  4016     065D  01AB               	clrf	read_digital_keypad@long_pressed
  4017     065E  01AC               	clrf	read_digital_keypad@long_pressed+1
  4018     065F                     l4158:
  4019                           
  4020                           ;digital_keypad.c: 22:         pre_key = key;
  4021     065F  0872               	movf	read_digital_keypad@key,w
  4022     0660  00B7               	movwf	read_digital_keypad@pre_key
  4023                           
  4024                           ;digital_keypad.c: 23:     }
  4025     0661  2E7F               	goto	l4172
  4026     0662                     l4160:
  4027     0662  303F               	movlw	63
  4028     0663  0672               	xorwf	read_digital_keypad@key,w
  4029     0664  1D03               	btfss	3,2
  4030     0665  2E67               	goto	u4031
  4031     0666  2E68               	goto	u4030
  4032     0667                     u4031:
  4033     0667  2E7F               	goto	l4172
  4034     0668                     u4030:
  4035     0668                     l4162:
  4036     0668  037A               	decf	read_digital_keypad@once,w
  4037     0669  1D03               	btfss	3,2
  4038     066A  2E6C               	goto	u4041
  4039     066B  2E6D               	goto	u4040
  4040     066C                     u4041:
  4041     066C  2E7F               	goto	l4172
  4042     066D                     u4040:
  4043     066D                     l4164:
  4044                           
  4045                           ;digital_keypad.c: 25:     {;digital_keypad.c: 26:         once = 0;
  4046     066D  01FA               	clrf	read_digital_keypad@once
  4047     066E                     l4166:
  4048                           
  4049                           ;digital_keypad.c: 28:         if (long_pressed < 15)
  4050     066E  082C               	movf	read_digital_keypad@long_pressed+1,w
  4051     066F  3A80               	xorlw	128
  4052     0670  00FF               	movwf	btemp+1
  4053     0671  3080               	movlw	128
  4054     0672  027F               	subwf	btemp+1,w
  4055     0673  1D03               	skipz
  4056     0674  2E77               	goto	u4055
  4057     0675  300F               	movlw	15
  4058     0676  022B               	subwf	read_digital_keypad@long_pressed,w
  4059     0677                     u4055:
  4060     0677  1803               	skipnc
  4061     0678  2E7A               	goto	u4051
  4062     0679  2E7B               	goto	u4050
  4063     067A                     u4051:
  4064     067A  2E7F               	goto	l4172
  4065     067B                     u4050:
  4066     067B                     l4168:
  4067                           
  4068                           ;digital_keypad.c: 29:         {;digital_keypad.c: 30:             return pre_key;
  4069     067B  1283               	bcf	3,5	;RP0=0, select bank0
  4070     067C  1303               	bcf	3,6	;RP1=0, select bank0
  4071     067D  0837               	movf	read_digital_keypad@pre_key,w
  4072     067E  2ED5               	goto	l457
  4073     067F                     l4172:
  4074                           
  4075                           ;digital_keypad.c: 36:     if (once == 1 && long_pressed < 16)
  4076     067F  037A               	decf	read_digital_keypad@once,w
  4077     0680  1D03               	btfss	3,2
  4078     0681  2E83               	goto	u4061
  4079     0682  2E84               	goto	u4060
  4080     0683                     u4061:
  4081     0683  2E9C               	goto	l4178
  4082     0684                     u4060:
  4083     0684                     l4174:
  4084     0684  1283               	bcf	3,5	;RP0=0, select bank0
  4085     0685  1303               	bcf	3,6	;RP1=0, select bank0
  4086     0686  082C               	movf	read_digital_keypad@long_pressed+1,w
  4087     0687  3A80               	xorlw	128
  4088     0688  00FF               	movwf	btemp+1
  4089     0689  3080               	movlw	128
  4090     068A  027F               	subwf	btemp+1,w
  4091     068B  1D03               	skipz
  4092     068C  2E8F               	goto	u4075
  4093     068D  3010               	movlw	16
  4094     068E  022B               	subwf	read_digital_keypad@long_pressed,w
  4095     068F                     u4075:
  4096     068F  1803               	skipnc
  4097     0690  2E92               	goto	u4071
  4098     0691  2E93               	goto	u4070
  4099     0692                     u4071:
  4100     0692  2E9C               	goto	l4178
  4101     0693                     u4070:
  4102     0693                     l4176:
  4103                           
  4104                           ;digital_keypad.c: 37:     {;digital_keypad.c: 38:         long_pressed++;
  4105     0693  3001               	movlw	1
  4106     0694  1283               	bcf	3,5	;RP0=0, select bank0
  4107     0695  1303               	bcf	3,6	;RP1=0, select bank0
  4108     0696  07AB               	addwf	read_digital_keypad@long_pressed,f
  4109     0697  1803               	skipnc
  4110     0698  0AAC               	incf	read_digital_keypad@long_pressed+1,f
  4111     0699  3000               	movlw	0
  4112     069A  07AC               	addwf	read_digital_keypad@long_pressed+1,f
  4113                           
  4114                           ;digital_keypad.c: 39:     }
  4115     069B  2ED4               	goto	l4200
  4116     069C                     l4178:
  4117     069C  037A               	decf	read_digital_keypad@once,w
  4118     069D  1D03               	btfss	3,2
  4119     069E  2EA0               	goto	u4081
  4120     069F  2EA1               	goto	u4080
  4121     06A0                     u4081:
  4122     06A0  2EB8               	goto	l4190
  4123     06A1                     u4080:
  4124     06A1                     l4180:
  4125     06A1  3010               	movlw	16
  4126     06A2  1283               	bcf	3,5	;RP0=0, select bank0
  4127     06A3  1303               	bcf	3,6	;RP1=0, select bank0
  4128     06A4  062B               	xorwf	read_digital_keypad@long_pressed,w
  4129     06A5  042C               	iorwf	read_digital_keypad@long_pressed+1,w
  4130     06A6  1D03               	btfss	3,2
  4131     06A7  2EA9               	goto	u4091
  4132     06A8  2EAA               	goto	u4090
  4133     06A9                     u4091:
  4134     06A9  2EB8               	goto	l4190
  4135     06AA                     u4090:
  4136     06AA                     l4182:
  4137     06AA  3037               	movlw	55
  4138     06AB  0672               	xorwf	read_digital_keypad@key,w
  4139     06AC  1D03               	btfss	3,2
  4140     06AD  2EAF               	goto	u4101
  4141     06AE  2EB0               	goto	u4100
  4142     06AF                     u4101:
  4143     06AF  2EB8               	goto	l4190
  4144     06B0                     u4100:
  4145     06B0                     l4184:
  4146                           
  4147                           ;digital_keypad.c: 42:     {;digital_keypad.c: 43:         long_pressed++;
  4148     06B0  3001               	movlw	1
  4149     06B1  07AB               	addwf	read_digital_keypad@long_pressed,f
  4150     06B2  1803               	skipnc
  4151     06B3  0AAC               	incf	read_digital_keypad@long_pressed+1,f
  4152     06B4  3000               	movlw	0
  4153     06B5  07AC               	addwf	read_digital_keypad@long_pressed+1,f
  4154                           
  4155                           ;digital_keypad.c: 44:         return 0x80;
  4156     06B6  3080               	movlw	128
  4157     06B7  2ED5               	goto	l457
  4158     06B8                     l4190:
  4159     06B8  037A               	decf	read_digital_keypad@once,w
  4160     06B9  1D03               	btfss	3,2
  4161     06BA  2EBC               	goto	u4111
  4162     06BB  2EBD               	goto	u4110
  4163     06BC                     u4111:
  4164     06BC  2ED4               	goto	l4200
  4165     06BD                     u4110:
  4166     06BD                     l4192:
  4167     06BD  3010               	movlw	16
  4168     06BE  1283               	bcf	3,5	;RP0=0, select bank0
  4169     06BF  1303               	bcf	3,6	;RP1=0, select bank0
  4170     06C0  062B               	xorwf	read_digital_keypad@long_pressed,w
  4171     06C1  042C               	iorwf	read_digital_keypad@long_pressed+1,w
  4172     06C2  1D03               	btfss	3,2
  4173     06C3  2EC5               	goto	u4121
  4174     06C4  2EC6               	goto	u4120
  4175     06C5                     u4121:
  4176     06C5  2ED4               	goto	l4200
  4177     06C6                     u4120:
  4178     06C6                     l4194:
  4179     06C6  302F               	movlw	47
  4180     06C7  0672               	xorwf	read_digital_keypad@key,w
  4181     06C8  1D03               	btfss	3,2
  4182     06C9  2ECB               	goto	u4131
  4183     06CA  2ECC               	goto	u4130
  4184     06CB                     u4131:
  4185     06CB  2ED4               	goto	l4200
  4186     06CC                     u4130:
  4187     06CC                     l4196:
  4188                           
  4189                           ;digital_keypad.c: 48:     {;digital_keypad.c: 49:         long_pressed++;
  4190     06CC  3001               	movlw	1
  4191     06CD  07AB               	addwf	read_digital_keypad@long_pressed,f
  4192     06CE  1803               	skipnc
  4193     06CF  0AAC               	incf	read_digital_keypad@long_pressed+1,f
  4194     06D0  3000               	movlw	0
  4195     06D1  07AC               	addwf	read_digital_keypad@long_pressed+1,f
  4196                           
  4197                           ;digital_keypad.c: 50:         return 0x90;
  4198     06D2  3090               	movlw	144
  4199     06D3  2ED5               	goto	l457
  4200     06D4                     l4200:
  4201                           
  4202                           ;digital_keypad.c: 53:     return 0x3F;
  4203     06D4  303F               	movlw	63
  4204     06D5                     l457:
  4205     06D5  0008               	return
  4206     06D6                     __end_of_read_digital_keypad:
  4207                           
  4208                           	psect	text4
  4209     11C8                     __ptext4:	
  4210 ;; *************** function _read_adc *****************
  4211 ;; Defined at:
  4212 ;;		line 12 in file "adc.c"
  4213 ;; Parameters:    Size  Location     Type
  4214 ;;		None
  4215 ;; Auto vars:     Size  Location     Type
  4216 ;;  adc_reg_val     2    4[COMMON] unsigned short 
  4217 ;; Return value:  Size  Location     Type
  4218 ;;                  2    2[COMMON] unsigned short 
  4219 ;; Registers used:
  4220 ;;		wreg
  4221 ;; Tracked objects:
  4222 ;;		On entry : 0/0
  4223 ;;		On exit  : 0/0
  4224 ;;		Unchanged: 0/0
  4225 ;; Data sizes:     COMMON   BANK0   BANK1   BANK3   BANK2
  4226 ;;      Params:         2       0       0       0       0
  4227 ;;      Locals:         2       0       0       0       0
  4228 ;;      Temps:          0       0       0       0       0
  4229 ;;      Totals:         4       0       0       0       0
  4230 ;;Total ram usage:        4 bytes
  4231 ;; Hardware stack levels used: 1
  4232 ;; Hardware stack levels required when called: 1
  4233 ;; This function calls:
  4234 ;;		Nothing
  4235 ;; This function is called by:
  4236 ;;		_main
  4237 ;; This function uses a non-reentrant model
  4238 ;;
  4239                           
  4240     11C8                     _read_adc:	
  4241                           ;psect for function _read_adc
  4242                           
  4243     11C8                     l4114:	
  4244                           ;incstack = 0
  4245                           ; Regs used in _read_adc: [wreg]
  4246                           
  4247                           
  4248                           ;adc.c: 14:     unsigned short adc_reg_val;;adc.c: 17:     GO = 1;
  4249     11C8  1283               	bcf	3,5	;RP0=0, select bank0
  4250     11C9  1303               	bcf	3,6	;RP1=0, select bank0
  4251     11CA  151F               	bsf	31,2	;volatile
  4252     11CB                     l125:	
  4253                           ;adc.c: 20:     while (nDONE);
  4254                           
  4255     11CB  191F               	btfsc	31,2	;volatile
  4256     11CC  29CE               	goto	u4001
  4257     11CD  29CF               	goto	u4000
  4258     11CE                     u4001:
  4259     11CE  29CB               	goto	l125
  4260     11CF                     u4000:
  4261     11CF                     l4116:
  4262                           
  4263                           ;adc.c: 23:     adc_reg_val = (ADRESH << 8) | ADRESL;
  4264     11CF  081E               	movf	30,w	;volatile
  4265     11D0  00F5               	movwf	read_adc@adc_reg_val+1
  4266     11D1  1683               	bsf	3,5	;RP0=1, select bank1
  4267     11D2  1303               	bcf	3,6	;RP1=0, select bank1
  4268     11D3  081E               	movf	30,w	;volatile
  4269     11D4  00F4               	movwf	read_adc@adc_reg_val
  4270                           
  4271                           ;adc.c: 25:     return adc_reg_val;
  4272     11D5  0875               	movf	read_adc@adc_reg_val+1,w
  4273     11D6  00F3               	movwf	?_read_adc+1
  4274     11D7  0874               	movf	read_adc@adc_reg_val,w
  4275     11D8  00F2               	movwf	?_read_adc
  4276     11D9                     l128:
  4277     11D9  0008               	return
  4278     11DA                     __end_of_read_adc:
  4279                           
  4280                           	psect	text5
  4281     09AF                     __ptext5:	
  4282 ;; *************** function _login_menu *****************
  4283 ;; Defined at:
  4284 ;;		line 272 in file "car_black_box.c"
  4285 ;; Parameters:    Size  Location     Type
  4286 ;;  key             1    wreg     unsigned char 
  4287 ;;  reset_flag      1   10[BANK0 ] unsigned char 
  4288 ;; Auto vars:     Size  Location     Type
  4289 ;;  key             1   13[BANK0 ] unsigned char 
  4290 ;; Return value:  Size  Location     Type
  4291 ;;                  1    wreg      unsigned char 
  4292 ;; Registers used:
  4293 ;;		wreg, fsr0l, fsr0h, status,2, status,0, btemp+1, pclath, cstack
  4294 ;; Tracked objects:
  4295 ;;		On entry : 0/0
  4296 ;;		On exit  : 0/0
  4297 ;;		Unchanged: 0/0
  4298 ;; Data sizes:     COMMON   BANK0   BANK1   BANK3   BANK2
  4299 ;;      Params:         0       1       0       0       0
  4300 ;;      Locals:         0       1       0       0       0
  4301 ;;      Temps:          0       2       0       0       0
  4302 ;;      Totals:         0       4       0       0       0
  4303 ;;Total ram usage:        4 bytes
  4304 ;; Hardware stack levels used: 1
  4305 ;; Hardware stack levels required when called: 3
  4306 ;; This function calls:
  4307 ;;		_clcd_print
  4308 ;;		_clcd_putch
  4309 ;;		_clear_screen
  4310 ;; This function is called by:
  4311 ;;		_main
  4312 ;; This function uses a non-reentrant model
  4313 ;;
  4314                           
  4315     09AF                     _login_menu:	
  4316                           ;psect for function _login_menu
  4317                           
  4318                           
  4319                           ;incstack = 0
  4320                           ; Regs used in _login_menu: [wreg-fsr0h+status,2+status,0+btemp+1+pclath+cstack]
  4321                           ;login_menu@key stored from wreg
  4322     09AF  1283               	bcf	3,5	;RP0=0, select bank0
  4323     09B0  1303               	bcf	3,6	;RP1=0, select bank0
  4324     09B1  00D2               	movwf	login_menu@key
  4325     09B2                     l4388:
  4326                           
  4327                           ;car_black_box.c: 272: unsigned char login_menu(unsigned char key, unsigned char reset_f
      +                          lag);car_black_box.c: 273: {;car_black_box.c: 274:     static char menu_pos;;car_black_b
      +                          ox.c: 278:     if (return_time == 0)
  4328     09B2  086B               	movf	_return_time,w
  4329     09B3  1D03               	btfss	3,2
  4330     09B4  29B6               	goto	u4291
  4331     09B5  29B7               	goto	u4290
  4332     09B6                     u4291:
  4333     09B6  29B9               	goto	l4394
  4334     09B7                     u4290:
  4335     09B7                     l4390:
  4336                           
  4337                           ;car_black_box.c: 279:     {;car_black_box.c: 280:         return 0x0A;
  4338     09B7  300A               	movlw	10
  4339     09B8  2A65               	goto	l340
  4340     09B9                     l4394:
  4341                           
  4342                           ;car_black_box.c: 285:     if (reset_flag == 0x70)
  4343     09B9  3070               	movlw	112
  4344     09BA  064F               	xorwf	login_menu@reset_flag,w
  4345     09BB  1D03               	btfss	3,2
  4346     09BC  29BE               	goto	u4301
  4347     09BD  29BF               	goto	u4300
  4348     09BE                     u4301:
  4349     09BE  29C7               	goto	l4402
  4350     09BF                     u4300:
  4351     09BF                     l4396:
  4352                           
  4353                           ;car_black_box.c: 286:     {;car_black_box.c: 287:         return_time = 15;
  4354     09BF  300F               	movlw	15
  4355     09C0  00EB               	movwf	_return_time
  4356     09C1                     l4398:
  4357                           
  4358                           ;car_black_box.c: 288:         menu_pos = 0;
  4359     09C1  01BC               	clrf	login_menu@menu_pos
  4360     09C2                     l4400:
  4361                           
  4362                           ;car_black_box.c: 289:         clear_screen();
  4363     09C2  160A  118A  21A5  120A  158A  	fcall	_clear_screen
  4364     09C7                     l4402:
  4365                           
  4366                           ;car_black_box.c: 294:     if (key == 0x37 && menu_pos > 0)
  4367     09C7  3037               	movlw	55
  4368     09C8  1283               	bcf	3,5	;RP0=0, select bank0
  4369     09C9  1303               	bcf	3,6	;RP1=0, select bank0
  4370     09CA  0652               	xorwf	login_menu@key,w
  4371     09CB  1D03               	btfss	3,2
  4372     09CC  29CE               	goto	u4311
  4373     09CD  29CF               	goto	u4310
  4374     09CE                     u4311:
  4375     09CE  29DE               	goto	l4412
  4376     09CF                     u4310:
  4377     09CF                     l4404:
  4378     09CF  083C               	movf	login_menu@menu_pos,w
  4379     09D0  1903               	btfsc	3,2
  4380     09D1  29D3               	goto	u4321
  4381     09D2  29D4               	goto	u4320
  4382     09D3                     u4321:
  4383     09D3  29DE               	goto	l4412
  4384     09D4                     u4320:
  4385     09D4                     l4406:
  4386                           
  4387                           ;car_black_box.c: 295:     {;car_black_box.c: 296:         return_time = 15;
  4388     09D4  300F               	movlw	15
  4389     09D5  00EB               	movwf	_return_time
  4390     09D6                     l4408:
  4391                           
  4392                           ;car_black_box.c: 297:         menu_pos--;
  4393     09D6  3001               	movlw	1
  4394     09D7  02BC               	subwf	login_menu@menu_pos,f
  4395     09D8                     l4410:
  4396                           
  4397                           ;car_black_box.c: 298:         clear_screen();
  4398     09D8  160A  118A  21A5  120A  158A  	fcall	_clear_screen
  4399                           
  4400                           ;car_black_box.c: 299:     }
  4401     09DD  29EF               	goto	l4422
  4402     09DE                     l4412:
  4403     09DE  302F               	movlw	47
  4404     09DF  0652               	xorwf	login_menu@key,w
  4405     09E0  1D03               	btfss	3,2
  4406     09E1  29E3               	goto	u4331
  4407     09E2  29E4               	goto	u4330
  4408     09E3                     u4331:
  4409     09E3  29EF               	goto	l4422
  4410     09E4                     u4330:
  4411     09E4                     l4414:
  4412     09E4  3004               	movlw	4
  4413     09E5  023C               	subwf	login_menu@menu_pos,w
  4414     09E6  1803               	skipnc
  4415     09E7  29E9               	goto	u4341
  4416     09E8  29EA               	goto	u4340
  4417     09E9                     u4341:
  4418     09E9  29EF               	goto	l4422
  4419     09EA                     u4340:
  4420     09EA                     l4416:
  4421                           
  4422                           ;car_black_box.c: 302:     {;car_black_box.c: 303:         return_time = 15;
  4423     09EA  300F               	movlw	15
  4424     09EB  00EB               	movwf	_return_time
  4425     09EC                     l4418:
  4426                           
  4427                           ;car_black_box.c: 304:         menu_pos++;
  4428     09EC  3001               	movlw	1
  4429     09ED  07BC               	addwf	login_menu@menu_pos,f
  4430     09EE  29D8               	goto	l4410
  4431     09EF                     l4422:
  4432                           
  4433                           ;car_black_box.c: 312:     if (menu_pos < 4)
  4434     09EF  3004               	movlw	4
  4435     09F0  1283               	bcf	3,5	;RP0=0, select bank0
  4436     09F1  1303               	bcf	3,6	;RP1=0, select bank0
  4437     09F2  023C               	subwf	login_menu@menu_pos,w
  4438     09F3  1803               	skipnc
  4439     09F4  29F6               	goto	u4351
  4440     09F5  29F7               	goto	u4350
  4441     09F6                     u4351:
  4442     09F6  2A2A               	goto	l4430
  4443     09F7                     u4350:
  4444     09F7                     l4424:
  4445                           
  4446                           ;car_black_box.c: 313:     {;car_black_box.c: 314:         clcd_putch('*', (0x80 + 0));
  4447     09F7  3080               	movlw	128
  4448     09F8  00CD               	movwf	clcd_putch@addr
  4449     09F9  302A               	movlw	42
  4450     09FA  160A  118A  2200  120A  158A  	fcall	_clcd_putch
  4451     09FF                     l4426:
  4452                           
  4453                           ;car_black_box.c: 315:         clcd_print(menu[menu_pos], (0x80 + 2));
  4454     09FF  1283               	bcf	3,5	;RP0=0, select bank0
  4455     0A00  1303               	bcf	3,6	;RP1=0, select bank0
  4456     0A01  083C               	movf	login_menu@menu_pos,w
  4457     0A02  00D0               	movwf	??_login_menu
  4458     0A03  0750               	addwf	??_login_menu,w
  4459     0A04  3EAC               	addlw	(low (_menu| 0))& (0+255)
  4460     0A05  0084               	movwf	4
  4461     0A06  1383               	bcf	3,7	;select IRP bank1
  4462     0A07  0800               	movf	0,w
  4463     0A08  00F6               	movwf	clcd_print@str
  4464     0A09  0A84               	incf	4,f
  4465     0A0A  0800               	movf	0,w
  4466     0A0B  0384               	decf	4,f
  4467     0A0C  00F7               	movwf	clcd_print@str+1
  4468     0A0D  3082               	movlw	130
  4469     0A0E  00F8               	movwf	clcd_print@addr
  4470     0A0F  160A  118A  23A5  120A  158A  	fcall	_clcd_print
  4471     0A14                     l4428:
  4472                           
  4473                           ;car_black_box.c: 316:         clcd_print(menu[menu_pos + 1], (0xC0 + 2));
  4474     0A14  1283               	bcf	3,5	;RP0=0, select bank0
  4475     0A15  1303               	bcf	3,6	;RP1=0, select bank0
  4476     0A16  083C               	movf	login_menu@menu_pos,w
  4477     0A17  00D0               	movwf	??_login_menu
  4478     0A18  0750               	addwf	??_login_menu,w
  4479     0A19  3EAE               	addlw	(low ((_menu| 0+2)))& (0+255)
  4480     0A1A  0084               	movwf	4
  4481     0A1B  1383               	bcf	3,7	;select IRP bank1
  4482     0A1C  0800               	movf	0,w
  4483     0A1D  00F6               	movwf	clcd_print@str
  4484     0A1E  0A84               	incf	4,f
  4485     0A1F  0800               	movf	0,w
  4486     0A20  0384               	decf	4,f
  4487     0A21  00F7               	movwf	clcd_print@str+1
  4488     0A22  30C2               	movlw	194
  4489     0A23  00F8               	movwf	clcd_print@addr
  4490     0A24  160A  118A  23A5  120A  158A  	fcall	_clcd_print
  4491                           
  4492                           ;car_black_box.c: 317:     }
  4493     0A29  2A62               	goto	l4436
  4494     0A2A                     l4430:
  4495     0A2A  3004               	movlw	4
  4496     0A2B  063C               	xorwf	login_menu@menu_pos,w
  4497     0A2C  1D03               	btfss	3,2
  4498     0A2D  2A2F               	goto	u4361
  4499     0A2E  2A30               	goto	u4360
  4500     0A2F                     u4361:
  4501     0A2F  2A62               	goto	l4436
  4502     0A30                     u4360:
  4503     0A30                     l4432:
  4504                           
  4505                           ;car_black_box.c: 320:     {;car_black_box.c: 322:         clcd_print(menu[menu_pos - 1]
      +                          , (0x80 + 2));
  4506     0A30  083C               	movf	login_menu@menu_pos,w
  4507     0A31  00D0               	movwf	??_login_menu
  4508     0A32  0750               	addwf	??_login_menu,w
  4509     0A33  3EAA               	addlw	(low ((_menu| 0+254)))& (0+255)
  4510     0A34  0084               	movwf	4
  4511     0A35  1383               	bcf	3,7	;select IRP bank1
  4512     0A36  0800               	movf	0,w
  4513     0A37  00F6               	movwf	clcd_print@str
  4514     0A38  0A84               	incf	4,f
  4515     0A39  0800               	movf	0,w
  4516     0A3A  0384               	decf	4,f
  4517     0A3B  00F7               	movwf	clcd_print@str+1
  4518     0A3C  3082               	movlw	130
  4519     0A3D  00F8               	movwf	clcd_print@addr
  4520     0A3E  160A  118A  23A5  120A  158A  	fcall	_clcd_print
  4521                           
  4522                           ;car_black_box.c: 323:         clcd_print(menu[menu_pos], (0xC0 + 2));
  4523     0A43  1283               	bcf	3,5	;RP0=0, select bank0
  4524     0A44  1303               	bcf	3,6	;RP1=0, select bank0
  4525     0A45  083C               	movf	login_menu@menu_pos,w
  4526     0A46  00D0               	movwf	??_login_menu
  4527     0A47  0750               	addwf	??_login_menu,w
  4528     0A48  3EAC               	addlw	(low (_menu| 0))& (0+255)
  4529     0A49  0084               	movwf	4
  4530     0A4A  1383               	bcf	3,7	;select IRP bank1
  4531     0A4B  0800               	movf	0,w
  4532     0A4C  00F6               	movwf	clcd_print@str
  4533     0A4D  0A84               	incf	4,f
  4534     0A4E  0800               	movf	0,w
  4535     0A4F  0384               	decf	4,f
  4536     0A50  00F7               	movwf	clcd_print@str+1
  4537     0A51  30C2               	movlw	194
  4538     0A52  00F8               	movwf	clcd_print@addr
  4539     0A53  160A  118A  23A5  120A  158A  	fcall	_clcd_print
  4540     0A58                     l4434:
  4541                           
  4542                           ;car_black_box.c: 324:         clcd_putch('*', (0xC0 + 0));
  4543     0A58  30C0               	movlw	192
  4544     0A59  1283               	bcf	3,5	;RP0=0, select bank0
  4545     0A5A  1303               	bcf	3,6	;RP1=0, select bank0
  4546     0A5B  00CD               	movwf	clcd_putch@addr
  4547     0A5C  302A               	movlw	42
  4548     0A5D  160A  118A  2200  120A  158A  	fcall	_clcd_putch
  4549     0A62                     l4436:
  4550                           
  4551                           ;car_black_box.c: 327:     return menu_pos;
  4552     0A62  1283               	bcf	3,5	;RP0=0, select bank0
  4553     0A63  1303               	bcf	3,6	;RP1=0, select bank0
  4554     0A64  083C               	movf	login_menu@menu_pos,w
  4555     0A65                     l340:
  4556     0A65  0008               	return
  4557     0A66                     __end_of_login_menu:
  4558                           
  4559                           	psect	text6
  4560     0E5F                     __ptext6:	
  4561 ;; *************** function _login *****************
  4562 ;; Defined at:
  4563 ;;		line 153 in file "car_black_box.c"
  4564 ;; Parameters:    Size  Location     Type
  4565 ;;  key             1    wreg     unsigned char 
  4566 ;;  reset_flag      1   10[BANK0 ] unsigned char 
  4567 ;; Auto vars:     Size  Location     Type
  4568 ;;  key             1   20[BANK0 ] unsigned char 
  4569 ;;  j               2   21[BANK0 ] int 
  4570 ;;  spassword       4   16[BANK0 ] unsigned char [4]
  4571 ;; Return value:  Size  Location     Type
  4572 ;;                  1    wreg      unsigned char 
  4573 ;; Registers used:
  4574 ;;		wreg, fsr0l, fsr0h, status,2, status,0, btemp+1, pclath, cstack
  4575 ;; Tracked objects:
  4576 ;;		On entry : 0/0
  4577 ;;		On exit  : 0/0
  4578 ;;		Unchanged: 0/0
  4579 ;; Data sizes:     COMMON   BANK0   BANK1   BANK3   BANK2
  4580 ;;      Params:         0       1       0       0       0
  4581 ;;      Locals:         0       9       0       0       0
  4582 ;;      Temps:          0       3       0       0       0
  4583 ;;      Totals:         0      13       0       0       0
  4584 ;;Total ram usage:       13 bytes
  4585 ;; Hardware stack levels used: 1
  4586 ;; Hardware stack levels required when called: 5
  4587 ;; This function calls:
  4588 ;;		___lwdiv
  4589 ;;		___lwmod
  4590 ;;		_clcd_print
  4591 ;;		_clcd_putch
  4592 ;;		_clcd_write
  4593 ;;		_clear_screen
  4594 ;;		_eeprom_at24c04_random_read
  4595 ;;		_strncmp
  4596 ;; This function is called by:
  4597 ;;		_main
  4598 ;; This function uses a non-reentrant model
  4599 ;;
  4600                           
  4601     0E5F                     _login:	
  4602                           ;psect for function _login
  4603                           
  4604                           
  4605                           ;incstack = 0
  4606                           ; Regs used in _login: [wreg-fsr0h+status,2+status,0+btemp+1+pclath+cstack]
  4607                           ;login@key stored from wreg
  4608     0E5F  1283               	bcf	3,5	;RP0=0, select bank0
  4609     0E60  1303               	bcf	3,6	;RP1=0, select bank0
  4610     0E61  00D9               	movwf	login@key
  4611     0E62                     l4282:
  4612                           
  4613                           ;car_black_box.c: 153: unsigned char login(unsigned char key, unsigned char reset_flag);
      +                          car_black_box.c: 154: {;car_black_box.c: 155:     static char npassword[4];;car_black_bo
      +                          x.c: 156:     char spassword[4];;car_black_box.c: 157:     static char i;;car_black_box.
      +                          c: 158:     static unsigned char attempts_rem = 3;;car_black_box.c: 161:     if (reset_f
      +                          lag == 0x60)
  4614     0E62  3060               	movlw	96
  4615     0E63  064F               	xorwf	login@reset_flag,w
  4616     0E64  1D03               	btfss	3,2
  4617     0E65  2E67               	goto	u4181
  4618     0E66  2E68               	goto	u4180
  4619     0E67                     u4181:
  4620     0E67  2E77               	goto	l4292
  4621     0E68                     u4180:
  4622     0E68                     l4284:
  4623                           
  4624                           ;car_black_box.c: 162:     {;car_black_box.c: 163:         attempts_rem = 3;
  4625     0E68  3003               	movlw	3
  4626     0E69  00EA               	movwf	login@attempts_rem
  4627     0E6A                     l4286:
  4628                           
  4629                           ;car_black_box.c: 166:         npassword[0] = '\0';
  4630     0E6A  1683               	bsf	3,5	;RP0=1, select bank1
  4631     0E6B  1303               	bcf	3,6	;RP1=0, select bank1
  4632     0E6C  01CD               	clrf	login@npassword^(0+128)
  4633                           
  4634                           ;car_black_box.c: 167:         npassword[1] = '\0';
  4635     0E6D  01CE               	clrf	(login@npassword^(0+128)+1)
  4636                           
  4637                           ;car_black_box.c: 168:         npassword[2] = '\0';
  4638     0E6E  01CF               	clrf	(login@npassword^(0+128)+2)
  4639                           
  4640                           ;car_black_box.c: 169:         npassword[3] = '\0';
  4641     0E6F  01D0               	clrf	(login@npassword^(0+128)+3)
  4642                           
  4643                           ;car_black_box.c: 171:         i = 0;
  4644     0E70  1283               	bcf	3,5	;RP0=0, select bank0
  4645     0E71  1303               	bcf	3,6	;RP1=0, select bank0
  4646     0E72  01BD               	clrf	login@i
  4647     0E73                     l4288:
  4648                           
  4649                           ;car_black_box.c: 172:         key = 0xFF;
  4650     0E73  30FF               	movlw	255
  4651     0E74  00D9               	movwf	login@key
  4652     0E75                     l4290:
  4653                           
  4654                           ;car_black_box.c: 173:         return_time = 5;
  4655     0E75  3005               	movlw	5
  4656     0E76  00EB               	movwf	_return_time
  4657     0E77                     l4292:
  4658                           
  4659                           ;car_black_box.c: 178:     if (return_time == 0)
  4660     0E77  086B               	movf	_return_time,w
  4661     0E78  1D03               	btfss	3,2
  4662     0E79  2E7B               	goto	u4191
  4663     0E7A  2E7C               	goto	u4190
  4664     0E7B                     u4191:
  4665     0E7B  2E7E               	goto	l4298
  4666     0E7C                     u4190:
  4667     0E7C                     l4294:
  4668                           
  4669                           ;car_black_box.c: 179:     {;car_black_box.c: 180:         return 0x0A;
  4670     0E7C  300A               	movlw	10
  4671     0E7D  2FFF               	goto	l321
  4672     0E7E                     l4298:
  4673                           
  4674                           ;car_black_box.c: 190:     _delay((unsigned long)((50)*(20000000/4000.0)));
  4675     0E7E  3002               	movlw	2
  4676     0E7F  1283               	bcf	3,5	;RP0=0, select bank0
  4677     0E80  1303               	bcf	3,6	;RP1=0, select bank0
  4678     0E81  00D2               	movwf	??_login+2
  4679     0E82  3045               	movlw	69
  4680     0E83  00D1               	movwf	??_login+1
  4681     0E84  30A9               	movlw	169
  4682     0E85  00D0               	movwf	??_login
  4683     0E86                     u4997:
  4684     0E86  0BD0               	decfsz	??_login,f
  4685     0E87  2E86               	goto	u4997
  4686     0E88  0BD1               	decfsz	??_login+1,f
  4687     0E89  2E86               	goto	u4997
  4688     0E8A  0BD2               	decfsz	??_login+2,f
  4689     0E8B  2E86               	goto	u4997
  4690     0E8C                     l4300:
  4691                           
  4692                           ;car_black_box.c: 192:     if (key == 0x37 && i < 4)
  4693     0E8C  3037               	movlw	55
  4694     0E8D  1283               	bcf	3,5	;RP0=0, select bank0
  4695     0E8E  1303               	bcf	3,6	;RP1=0, select bank0
  4696     0E8F  0659               	xorwf	login@key,w
  4697     0E90  1D03               	btfss	3,2
  4698     0E91  2E93               	goto	u4201
  4699     0E92  2E94               	goto	u4200
  4700     0E93                     u4201:
  4701     0E93  2EB0               	goto	l4312
  4702     0E94                     u4200:
  4703     0E94                     l4302:
  4704     0E94  3004               	movlw	4
  4705     0E95  023D               	subwf	login@i,w
  4706     0E96  1803               	skipnc
  4707     0E97  2E99               	goto	u4211
  4708     0E98  2E9A               	goto	u4210
  4709     0E99                     u4211:
  4710     0E99  2EB0               	goto	l4312
  4711     0E9A                     u4210:
  4712     0E9A                     l4304:
  4713                           
  4714                           ;car_black_box.c: 193:     {;car_black_box.c: 194:         npassword[i] = '1';
  4715     0E9A  083D               	movf	login@i,w
  4716     0E9B  3ECD               	addlw	(low (login@npassword| 0))& (0+255)
  4717     0E9C  0084               	movwf	4
  4718     0E9D  3031               	movlw	49
  4719     0E9E  1383               	bcf	3,7	;select IRP bank1
  4720     0E9F  0080               	movwf	0
  4721     0EA0                     l4306:
  4722                           
  4723                           ;car_black_box.c: 195:         clcd_putch('*', (0xC0 + 6 + i));
  4724     0EA0  083D               	movf	login@i,w
  4725     0EA1  3EC6               	addlw	198
  4726     0EA2  00CD               	movwf	clcd_putch@addr
  4727     0EA3  302A               	movlw	42
  4728     0EA4  160A  118A  2200  120A  158A  	fcall	_clcd_putch
  4729     0EA9                     l4308:
  4730                           
  4731                           ;car_black_box.c: 196:         i++;
  4732     0EA9  3001               	movlw	1
  4733     0EAA  1283               	bcf	3,5	;RP0=0, select bank0
  4734     0EAB  1303               	bcf	3,6	;RP1=0, select bank0
  4735     0EAC  07BD               	addwf	login@i,f
  4736     0EAD                     l4310:
  4737                           
  4738                           ;car_black_box.c: 197:         return_time = 5;
  4739     0EAD  3005               	movlw	5
  4740     0EAE  00EB               	movwf	_return_time
  4741                           
  4742                           ;car_black_box.c: 198:     }
  4743     0EAF  2ECC               	goto	l4324
  4744     0EB0                     l4312:
  4745     0EB0  302F               	movlw	47
  4746     0EB1  0659               	xorwf	login@key,w
  4747     0EB2  1D03               	btfss	3,2
  4748     0EB3  2EB5               	goto	u4221
  4749     0EB4  2EB6               	goto	u4220
  4750     0EB5                     u4221:
  4751     0EB5  2ECC               	goto	l4324
  4752     0EB6                     u4220:
  4753     0EB6                     l4314:
  4754     0EB6  3004               	movlw	4
  4755     0EB7  023D               	subwf	login@i,w
  4756     0EB8  1803               	skipnc
  4757     0EB9  2EBB               	goto	u4231
  4758     0EBA  2EBC               	goto	u4230
  4759     0EBB                     u4231:
  4760     0EBB  2ECC               	goto	l4324
  4761     0EBC                     u4230:
  4762     0EBC                     l4316:
  4763                           
  4764                           ;car_black_box.c: 200:     {;car_black_box.c: 201:         npassword[i] = '0';
  4765     0EBC  083D               	movf	login@i,w
  4766     0EBD  3ECD               	addlw	(low (login@npassword| 0))& (0+255)
  4767     0EBE  0084               	movwf	4
  4768     0EBF  3030               	movlw	48
  4769     0EC0  1383               	bcf	3,7	;select IRP bank1
  4770     0EC1  0080               	movwf	0
  4771     0EC2                     l4318:
  4772                           
  4773                           ;car_black_box.c: 202:         clcd_putch('*', (0xC0 + 6 + i));
  4774     0EC2  083D               	movf	login@i,w
  4775     0EC3  3EC6               	addlw	198
  4776     0EC4  00CD               	movwf	clcd_putch@addr
  4777     0EC5  302A               	movlw	42
  4778     0EC6  160A  118A  2200  120A  158A  	fcall	_clcd_putch
  4779     0ECB  2EA9               	goto	l4308
  4780     0ECC                     l4324:
  4781                           
  4782                           ;car_black_box.c: 209:     if (i == 4)
  4783     0ECC  3004               	movlw	4
  4784     0ECD  063D               	xorwf	login@i,w
  4785     0ECE  1D03               	btfss	3,2
  4786     0ECF  2ED1               	goto	u4241
  4787     0ED0  2ED2               	goto	u4240
  4788     0ED1                     u4241:
  4789     0ED1  2FFE               	goto	l4384
  4790     0ED2                     u4240:
  4791     0ED2                     l4326:
  4792                           
  4793                           ;car_black_box.c: 210:     {;car_black_box.c: 212:         for (int j = 0; j < 4; j++)
  4794     0ED2  01DA               	clrf	login@j
  4795     0ED3  01DB               	clrf	login@j+1
  4796     0ED4                     l4332:
  4797                           
  4798                           ;car_black_box.c: 213:         {;car_black_box.c: 214:             spassword[j] = eeprom
      +                          _at24c04_random_read(j);
  4799     0ED4  1283               	bcf	3,5	;RP0=0, select bank0
  4800     0ED5  1303               	bcf	3,6	;RP1=0, select bank0
  4801     0ED6  085A               	movf	login@j,w
  4802     0ED7  3E55               	addlw	(low (login@spassword| 0))& (0+255)
  4803     0ED8  0084               	movwf	4
  4804     0ED9  085A               	movf	login@j,w
  4805     0EDA  160A  118A  237A  120A  158A  	fcall	_eeprom_at24c04_random_read
  4806     0EDF  1383               	bcf	3,7	;select IRP bank0
  4807     0EE0  0080               	movwf	0
  4808     0EE1                     l4334:
  4809                           
  4810                           ;car_black_box.c: 215:         }
  4811     0EE1  3001               	movlw	1
  4812     0EE2  1283               	bcf	3,5	;RP0=0, select bank0
  4813     0EE3  1303               	bcf	3,6	;RP1=0, select bank0
  4814     0EE4  07DA               	addwf	login@j,f
  4815     0EE5  1803               	skipnc
  4816     0EE6  0ADB               	incf	login@j+1,f
  4817     0EE7  3000               	movlw	0
  4818     0EE8  07DB               	addwf	login@j+1,f
  4819     0EE9                     l4336:
  4820     0EE9  085B               	movf	login@j+1,w
  4821     0EEA  3A80               	xorlw	128
  4822     0EEB  00FF               	movwf	btemp+1
  4823     0EEC  3080               	movlw	128
  4824     0EED  027F               	subwf	btemp+1,w
  4825     0EEE  1D03               	skipz
  4826     0EEF  2EF2               	goto	u4255
  4827     0EF0  3004               	movlw	4
  4828     0EF1  025A               	subwf	login@j,w
  4829     0EF2                     u4255:
  4830     0EF2  1C03               	skipc
  4831     0EF3  2EF5               	goto	u4251
  4832     0EF4  2EF6               	goto	u4250
  4833     0EF5                     u4251:
  4834     0EF5  2ED4               	goto	l4332
  4835     0EF6                     u4250:
  4836     0EF6                     l4338:
  4837                           
  4838                           ;car_black_box.c: 218:         if (strncmp(spassword, npassword, 4) == 0)
  4839     0EF6  3055               	movlw	(low (login@spassword| 0))& (0+255)
  4840     0EF7  00F2               	movwf	strncmp@l
  4841     0EF8  30CD               	movlw	(low (login@npassword| 0))& (0+255)
  4842     0EF9  00F3               	movwf	strncmp@r
  4843     0EFA  3004               	movlw	4
  4844     0EFB  00F4               	movwf	strncmp@n
  4845     0EFC  3000               	movlw	0
  4846     0EFD  00F5               	movwf	strncmp@n+1
  4847     0EFE  160A  118A  25A9  120A  158A  	fcall	_strncmp
  4848     0F03  0872               	movf	?_strncmp,w
  4849     0F04  0473               	iorwf	?_strncmp+1,w
  4850     0F05  1D03               	btfss	3,2
  4851     0F06  2F08               	goto	u4261
  4852     0F07  2F09               	goto	u4260
  4853     0F08                     u4261:
  4854     0F08  2F0B               	goto	l4346
  4855     0F09                     u4260:
  4856     0F09                     l4340:
  4857                           
  4858                           ;car_black_box.c: 219:         {;car_black_box.c: 220:             return 0x0B;
  4859     0F09  300B               	movlw	11
  4860     0F0A  2FFF               	goto	l321
  4861     0F0B                     l4346:
  4862                           
  4863                           ;car_black_box.c: 223:         {;car_black_box.c: 224:             attempts_rem--;
  4864     0F0B  3001               	movlw	1
  4865     0F0C  1283               	bcf	3,5	;RP0=0, select bank0
  4866     0F0D  1303               	bcf	3,6	;RP1=0, select bank0
  4867     0F0E  02EA               	subwf	login@attempts_rem,f
  4868                           
  4869                           ;car_black_box.c: 226:             if (attempts_rem == 0)
  4870     0F0F  086A               	movf	login@attempts_rem,w
  4871     0F10  1D03               	btfss	3,2
  4872     0F11  2F13               	goto	u4271
  4873     0F12  2F14               	goto	u4270
  4874     0F13                     u4271:
  4875     0F13  2F9F               	goto	l4362
  4876     0F14                     u4270:
  4877     0F14                     l4348:
  4878                           
  4879                           ;car_black_box.c: 227:             {;car_black_box.c: 228:                 sec = 900;
  4880     0F14  3084               	movlw	132
  4881     0F15  00B5               	movwf	_sec
  4882     0F16  3003               	movlw	3
  4883     0F17  00B6               	movwf	_sec+1
  4884     0F18                     l4350:
  4885                           
  4886                           ;car_black_box.c: 230:                 clear_screen();
  4887     0F18  160A  118A  21A5  120A  158A  	fcall	_clear_screen
  4888     0F1D                     l4352:
  4889                           
  4890                           ;car_black_box.c: 231:                 clcd_write(0x0C, 0);
  4891     0F1D  01F2               	clrf	clcd_write@mode
  4892     0F1E  300C               	movlw	12
  4893     0F1F  160A  118A  224C  120A  158A  	fcall	_clcd_write
  4894                           
  4895                           ;car_black_box.c: 232:                 _delay((unsigned long)((100)*(20000000/4000000.0)
      +                          ));
  4896     0F24  30A5               	movlw	165
  4897     0F25  1283               	bcf	3,5	;RP0=0, select bank0
  4898     0F26  1303               	bcf	3,6	;RP1=0, select bank0
  4899     0F27  00D0               	movwf	??_login
  4900     0F28                     u5007:
  4901     0F28  0BD0               	decfsz	??_login,f
  4902     0F29  2F28               	goto	u5007
  4903     0F2A  2F2B               	nop2
  4904     0F2B                     l4354:
  4905                           
  4906                           ;car_black_box.c: 233:                 clcd_print("You Are  Blocked", (0x80 + 0));
  4907     0F2B  309D               	movlw	low (STR_23| (0+32768))
  4908     0F2C  00F6               	movwf	clcd_print@str
  4909     0F2D  3087               	movlw	high (STR_23| (0+32768))
  4910     0F2E  00F7               	movwf	clcd_print@str+1
  4911     0F2F  3080               	movlw	128
  4912     0F30  00F8               	movwf	clcd_print@addr
  4913     0F31  160A  118A  23A5  120A  158A  	fcall	_clcd_print
  4914     0F36                     l4356:
  4915                           
  4916                           ;car_black_box.c: 234:                 clcd_print("Wait for...15min", (0xC0 + 0));
  4917     0F36  30D0               	movlw	low (STR_24| (0+32768))
  4918     0F37  00F6               	movwf	clcd_print@str
  4919     0F38  3087               	movlw	high (STR_24| (0+32768))
  4920     0F39  00F7               	movwf	clcd_print@str+1
  4921     0F3A  30C0               	movlw	192
  4922     0F3B  00F8               	movwf	clcd_print@addr
  4923     0F3C  160A  118A  23A5  120A  158A  	fcall	_clcd_print
  4924                           
  4925                           ;car_black_box.c: 236:                 while (sec)
  4926     0F41  2F94               	goto	l4360
  4927     0F42                     l4358:
  4928                           
  4929                           ;car_black_box.c: 237:                 {;car_black_box.c: 239:                     clcd_
      +                          putch(((sec / 60) / 10) + '0', (0xC0 + 11));
  4930     0F42  303C               	movlw	60
  4931     0F43  00F6               	movwf	___lwdiv@divisor
  4932     0F44  3000               	movlw	0
  4933     0F45  00F7               	movwf	___lwdiv@divisor+1
  4934     0F46  0836               	movf	_sec+1,w
  4935     0F47  00F9               	movwf	___lwdiv@dividend+1
  4936     0F48  0835               	movf	_sec,w
  4937     0F49  00F8               	movwf	___lwdiv@dividend
  4938     0F4A  160A  118A  2565  120A  158A  	fcall	___lwdiv
  4939     0F4F  0877               	movf	?___lwdiv+1,w
  4940     0F50  1283               	bcf	3,5	;RP0=0, select bank0
  4941     0F51  1303               	bcf	3,6	;RP1=0, select bank0
  4942     0F52  00D4               	movwf	_login$1107+1
  4943     0F53  0876               	movf	?___lwdiv,w
  4944     0F54  00D3               	movwf	_login$1107
  4945                           
  4946                           ;car_black_box.c: 237:                 {;car_black_box.c: 239:                     clcd_
      +                          putch(((sec / 60) / 10) + '0', (0xC0 + 11));
  4947     0F55  30CB               	movlw	203
  4948     0F56  00CD               	movwf	clcd_putch@addr
  4949     0F57  300A               	movlw	10
  4950     0F58  00F6               	movwf	___lwdiv@divisor
  4951     0F59  3000               	movlw	0
  4952     0F5A  00F7               	movwf	___lwdiv@divisor+1
  4953     0F5B  0854               	movf	_login$1107+1,w
  4954     0F5C  00F9               	movwf	___lwdiv@dividend+1
  4955     0F5D  0853               	movf	_login$1107,w
  4956     0F5E  00F8               	movwf	___lwdiv@dividend
  4957     0F5F  160A  118A  2565  120A  158A  	fcall	___lwdiv
  4958     0F64  0876               	movf	?___lwdiv,w
  4959     0F65  3E30               	addlw	48
  4960     0F66  160A  118A  2200  120A  158A  	fcall	_clcd_putch
  4961                           
  4962                           ;car_black_box.c: 240:                     clcd_putch(((sec / 60) % 10) + '0', (0xC0 + 1
      +                          2));
  4963     0F6B  30CC               	movlw	204
  4964     0F6C  1283               	bcf	3,5	;RP0=0, select bank0
  4965     0F6D  1303               	bcf	3,6	;RP1=0, select bank0
  4966     0F6E  00CD               	movwf	clcd_putch@addr
  4967     0F6F  300A               	movlw	10
  4968     0F70  00C8               	movwf	___lwmod@divisor
  4969     0F71  3000               	movlw	0
  4970     0F72  00C9               	movwf	___lwmod@divisor+1
  4971     0F73  303C               	movlw	60
  4972     0F74  00F6               	movwf	___lwdiv@divisor
  4973     0F75  3000               	movlw	0
  4974     0F76  00F7               	movwf	___lwdiv@divisor+1
  4975     0F77  0836               	movf	_sec+1,w
  4976     0F78  00F9               	movwf	___lwdiv@dividend+1
  4977     0F79  0835               	movf	_sec,w
  4978     0F7A  00F8               	movwf	___lwdiv@dividend
  4979     0F7B  160A  118A  2565  120A  158A  	fcall	___lwdiv
  4980     0F80  0877               	movf	?___lwdiv+1,w
  4981     0F81  1283               	bcf	3,5	;RP0=0, select bank0
  4982     0F82  1303               	bcf	3,6	;RP1=0, select bank0
  4983     0F83  00CB               	movwf	___lwmod@dividend+1
  4984     0F84  0876               	movf	?___lwdiv,w
  4985     0F85  00CA               	movwf	___lwmod@dividend
  4986     0F86  160A  118A  246E  120A  158A  	fcall	___lwmod
  4987     0F8B  1283               	bcf	3,5	;RP0=0, select bank0
  4988     0F8C  1303               	bcf	3,6	;RP1=0, select bank0
  4989     0F8D  0848               	movf	?___lwmod,w
  4990     0F8E  3E30               	addlw	48
  4991     0F8F  160A  118A  2200  120A  158A  	fcall	_clcd_putch
  4992     0F94                     l4360:
  4993                           
  4994                           ;car_black_box.c: 236:                 while (sec)
  4995     0F94  1283               	bcf	3,5	;RP0=0, select bank0
  4996     0F95  1303               	bcf	3,6	;RP1=0, select bank0
  4997     0F96  0835               	movf	_sec,w
  4998     0F97  0436               	iorwf	_sec+1,w
  4999     0F98  1D03               	btfss	3,2
  5000     0F99  2F9B               	goto	u4281
  5001     0F9A  2F9C               	goto	u4280
  5002     0F9B                     u4281:
  5003     0F9B  2F42               	goto	l4358
  5004     0F9C                     u4280:
  5005     0F9C                     l333:
  5006                           
  5007                           ;car_black_box.c: 242:                 attempts_rem = 3;
  5008     0F9C  3003               	movlw	3
  5009     0F9D  00EA               	movwf	login@attempts_rem
  5010                           
  5011                           ;car_black_box.c: 243:             }
  5012     0F9E  2FD4               	goto	l4370
  5013     0F9F                     l4362:
  5014                           
  5015                           ;car_black_box.c: 245:             {;car_black_box.c: 247:                 clear_screen(
      +                          );
  5016     0F9F  160A  118A  21A5  120A  158A  	fcall	_clear_screen
  5017     0FA4                     l4364:
  5018                           
  5019                           ;car_black_box.c: 248:                 clcd_print(" Wrong Password ", (0x80 + 0));
  5020     0FA4  306A               	movlw	low (STR_25| (0+32768))
  5021     0FA5  00F6               	movwf	clcd_print@str
  5022     0FA6  3087               	movlw	high (STR_25| (0+32768))
  5023     0FA7  00F7               	movwf	clcd_print@str+1
  5024     0FA8  3080               	movlw	128
  5025     0FA9  00F8               	movwf	clcd_print@addr
  5026     0FAA  160A  118A  23A5  120A  158A  	fcall	_clcd_print
  5027     0FAF                     l4366:
  5028                           
  5029                           ;car_black_box.c: 249:                 clcd_putch(attempts_rem + '0', (0xC0 + 0));
  5030     0FAF  30C0               	movlw	192
  5031     0FB0  1283               	bcf	3,5	;RP0=0, select bank0
  5032     0FB1  1303               	bcf	3,6	;RP1=0, select bank0
  5033     0FB2  00CD               	movwf	clcd_putch@addr
  5034     0FB3  086A               	movf	login@attempts_rem,w
  5035     0FB4  3E30               	addlw	48
  5036     0FB5  160A  118A  2200  120A  158A  	fcall	_clcd_putch
  5037                           
  5038                           ;car_black_box.c: 250:                 clcd_print(" Attempt Remain", (0xC0 + 1));
  5039     0FBA  3035               	movlw	low (STR_26| (0+32768))
  5040     0FBB  00F6               	movwf	clcd_print@str
  5041     0FBC  3088               	movlw	high (STR_26| (0+32768))
  5042     0FBD  00F7               	movwf	clcd_print@str+1
  5043     0FBE  30C1               	movlw	193
  5044     0FBF  00F8               	movwf	clcd_print@addr
  5045     0FC0  160A  118A  23A5  120A  158A  	fcall	_clcd_print
  5046     0FC5                     l4368:
  5047                           
  5048                           ;car_black_box.c: 251:                 _delay((unsigned long)((4000)*(20000000/4000.0)))
      +                          ;
  5049     0FC5  3066               	movlw	102
  5050     0FC6  1283               	bcf	3,5	;RP0=0, select bank0
  5051     0FC7  1303               	bcf	3,6	;RP1=0, select bank0
  5052     0FC8  00D2               	movwf	??_login+2
  5053     0FC9  3076               	movlw	118
  5054     0FCA  00D1               	movwf	??_login+1
  5055     0FCB  30C0               	movlw	192
  5056     0FCC  00D0               	movwf	??_login
  5057     0FCD                     u5017:
  5058     0FCD  0BD0               	decfsz	??_login,f
  5059     0FCE  2FCD               	goto	u5017
  5060     0FCF  0BD1               	decfsz	??_login+1,f
  5061     0FD0  2FCD               	goto	u5017
  5062     0FD1  0BD2               	decfsz	??_login+2,f
  5063     0FD2  2FCD               	goto	u5017
  5064     0FD3  0000               	nop
  5065     0FD4                     l4370:
  5066                           
  5067                           ;car_black_box.c: 255:             clear_screen();
  5068     0FD4  160A  118A  21A5  120A  158A  	fcall	_clear_screen
  5069     0FD9                     l4372:
  5070                           
  5071                           ;car_black_box.c: 256:             clcd_print(" Enter Password ", (0x80 + 0));
  5072     0FD9  3014               	movlw	low (STR_9| (0+32768))
  5073     0FDA  00F6               	movwf	clcd_print@str
  5074     0FDB  3088               	movlw	high (STR_9| (0+32768))
  5075     0FDC  00F7               	movwf	clcd_print@str+1
  5076     0FDD  3080               	movlw	128
  5077     0FDE  00F8               	movwf	clcd_print@addr
  5078     0FDF  160A  118A  23A5  120A  158A  	fcall	_clcd_print
  5079     0FE4                     l4374:
  5080                           
  5081                           ;car_black_box.c: 257:             i = 0;
  5082     0FE4  1283               	bcf	3,5	;RP0=0, select bank0
  5083     0FE5  1303               	bcf	3,6	;RP1=0, select bank0
  5084     0FE6  01BD               	clrf	login@i
  5085     0FE7                     l4376:
  5086                           
  5087                           ;car_black_box.c: 258:             return_time = 5;
  5088     0FE7  3005               	movlw	5
  5089     0FE8  00EB               	movwf	_return_time
  5090     0FE9                     l4378:
  5091                           
  5092                           ;car_black_box.c: 259:             clcd_write(0xC6, 0);
  5093     0FE9  01F2               	clrf	clcd_write@mode
  5094     0FEA  30C6               	movlw	198
  5095     0FEB  160A  118A  224C  120A  158A  	fcall	_clcd_write
  5096     0FF0                     l4380:
  5097                           
  5098                           ;car_black_box.c: 260:             clcd_write(0x0F, 0);
  5099     0FF0  01F2               	clrf	clcd_write@mode
  5100     0FF1  300F               	movlw	15
  5101     0FF2  160A  118A  224C  120A  158A  	fcall	_clcd_write
  5102     0FF7                     l4382:
  5103                           
  5104                           ;car_black_box.c: 261:             _delay((unsigned long)((100)*(20000000/4000000.0)));
  5105     0FF7  30A5               	movlw	165
  5106     0FF8  1283               	bcf	3,5	;RP0=0, select bank0
  5107     0FF9  1303               	bcf	3,6	;RP1=0, select bank0
  5108     0FFA  00D0               	movwf	??_login
  5109     0FFB                     u5027:
  5110     0FFB  0BD0               	decfsz	??_login,f
  5111     0FFC  2FFB               	goto	u5027
  5112     0FFD  2FFE               	nop2
  5113     0FFE                     l4384:
  5114                           
  5115                           ;car_black_box.c: 265:     return 0xFF;
  5116     0FFE  30FF               	movlw	255
  5117     0FFF                     l321:
  5118     0FFF  0008               	return
  5119     1000                     __end_of_login:
  5120                           
  5121                           	psect	text7
  5122     11A5                     __ptext7:	
  5123 ;; *************** function _clear_screen *****************
  5124 ;; Defined at:
  5125 ;;		line 142 in file "car_black_box.c"
  5126 ;; Parameters:    Size  Location     Type
  5127 ;;		None
  5128 ;; Auto vars:     Size  Location     Type
  5129 ;;		None
  5130 ;; Return value:  Size  Location     Type
  5131 ;;                  1    wreg      void 
  5132 ;; Registers used:
  5133 ;;		wreg, status,2, status,0, pclath, cstack
  5134 ;; Tracked objects:
  5135 ;;		On entry : 0/0
  5136 ;;		On exit  : 0/0
  5137 ;;		Unchanged: 0/0
  5138 ;; Data sizes:     COMMON   BANK0   BANK1   BANK3   BANK2
  5139 ;;      Params:         0       0       0       0       0
  5140 ;;      Locals:         0       0       0       0       0
  5141 ;;      Temps:          2       0       0       0       0
  5142 ;;      Totals:         2       0       0       0       0
  5143 ;;Total ram usage:        2 bytes
  5144 ;; Hardware stack levels used: 1
  5145 ;; Hardware stack levels required when called: 2
  5146 ;; This function calls:
  5147 ;;		_clcd_write
  5148 ;; This function is called by:
  5149 ;;		_main
  5150 ;;		_login
  5151 ;;		_login_menu
  5152 ;; This function uses a non-reentrant model
  5153 ;;
  5154                           
  5155     11A5                     _clear_screen:	
  5156                           ;psect for function _clear_screen
  5157                           
  5158     11A5                     l3882:	
  5159                           ;incstack = 0
  5160                           ; Regs used in _clear_screen: [wreg+status,2+status,0+pclath+cstack]
  5161                           
  5162                           
  5163                           ;car_black_box.c: 145:     clcd_write(0x01, 0);
  5164     11A5  01F2               	clrf	clcd_write@mode
  5165     11A6  3001               	movlw	1
  5166     11A7  160A  118A  224C  160A  118A  	fcall	_clcd_write
  5167     11AC                     l3884:
  5168                           
  5169                           ;car_black_box.c: 146:     _delay((unsigned long)((500)*(20000000/4000000.0)));
  5170     11AC  3004               	movlw	4
  5171     11AD  00F7               	movwf	??_clear_screen+1
  5172     11AE  303D               	movlw	61
  5173     11AF  00F6               	movwf	??_clear_screen
  5174     11B0                     u5037:
  5175     11B0  0BF6               	decfsz	??_clear_screen,f
  5176     11B1  29B0               	goto	u5037
  5177     11B2  0BF7               	decfsz	??_clear_screen+1,f
  5178     11B3  29B0               	goto	u5037
  5179     11B4  29B5               	nop2
  5180     11B5                     l310:
  5181     11B5  0008               	return
  5182     11B6                     __end_of_clear_screen:
  5183                           
  5184                           	psect	text8
  5185     1743                     __ptext8:	
  5186 ;; *************** function _log_car_event *****************
  5187 ;; Defined at:
  5188 ;;		line 123 in file "car_black_box.c"
  5189 ;; Parameters:    Size  Location     Type
  5190 ;;  event           2    1[BANK0 ] PTR unsigned char 
  5191 ;;		 -> STR_16(3), STR_15(3), STR_14(3), STR_11(3), 
  5192 ;;		 -> main@event(3), 
  5193 ;;  speed           1    3[BANK0 ] unsigned char 
  5194 ;; Auto vars:     Size  Location     Type
  5195 ;;		None
  5196 ;; Return value:  Size  Location     Type
  5197 ;;                  1    wreg      void 
  5198 ;; Registers used:
  5199 ;;		wreg, fsr0l, fsr0h, status,2, status,0, btemp+1, pclath, cstack
  5200 ;; Tracked objects:
  5201 ;;		On entry : 0/0
  5202 ;;		On exit  : 0/0
  5203 ;;		Unchanged: 0/0
  5204 ;; Data sizes:     COMMON   BANK0   BANK1   BANK3   BANK2
  5205 ;;      Params:         0       3       0       0       0
  5206 ;;      Locals:         0       0       0       0       0
  5207 ;;      Temps:          0       2       0       0       0
  5208 ;;      Totals:         0       5       0       0       0
  5209 ;;Total ram usage:        5 bytes
  5210 ;; Hardware stack levels used: 1
  5211 ;; Hardware stack levels required when called: 6
  5212 ;; This function calls:
  5213 ;;		___awdiv
  5214 ;;		___awmod
  5215 ;;		_get_time
  5216 ;;		_log_event
  5217 ;;		_strncpy
  5218 ;; This function is called by:
  5219 ;;		_main
  5220 ;; This function uses a non-reentrant model
  5221 ;;
  5222                           
  5223     1743                     _log_car_event:	
  5224                           ;psect for function _log_car_event
  5225                           
  5226     1743                     l4136:	
  5227                           ;incstack = 0
  5228                           ; Regs used in _log_car_event: [wreg-fsr0h+status,2+status,0+btemp+1+pclath+cstack]
  5229                           
  5230                           
  5231                           ;car_black_box.c: 123: void log_car_event(char event[], unsigned char speed);car_black_b
      +                          ox.c: 124: {;car_black_box.c: 126:     get_time();
  5232     1743  160A  118A  25F4  160A  118A  	fcall	_get_time
  5233     1748                     l4138:
  5234                           
  5235                           ;car_black_box.c: 128:     strncpy(log, time, 6);
  5236     1748  30B9               	movlw	(low (_log| 0))& (0+255)
  5237     1749  00F2               	movwf	strncpy@d
  5238     174A  303E               	movlw	(low (_time| 0))& (0+255)
  5239     174B  00F3               	movwf	strncpy@s
  5240     174C  3000               	movlw	0
  5241     174D  00F4               	movwf	strncpy@s+1
  5242     174E  3006               	movlw	6
  5243     174F  00F5               	movwf	strncpy@n
  5244     1750  3000               	movlw	0
  5245     1751  00F6               	movwf	strncpy@n+1
  5246     1752  160A  118A  2521  160A  118A  	fcall	_strncpy
  5247     1757                     l4140:
  5248                           
  5249                           ;car_black_box.c: 129:     strncpy(&log[6], event, 2);
  5250     1757  30BF               	movlw	(low ((_log| 0+6)))& (0+255)
  5251     1758  00F2               	movwf	strncpy@d
  5252     1759  1283               	bcf	3,5	;RP0=0, select bank0
  5253     175A  1303               	bcf	3,6	;RP1=0, select bank0
  5254     175B  0846               	movf	log_car_event@event,w
  5255     175C  00F3               	movwf	strncpy@s
  5256     175D  0847               	movf	log_car_event@event+1,w
  5257     175E  00F4               	movwf	strncpy@s+1
  5258     175F  3002               	movlw	2
  5259     1760  00F5               	movwf	strncpy@n
  5260     1761  3000               	movlw	0
  5261     1762  00F6               	movwf	strncpy@n+1
  5262     1763  160A  118A  2521  160A  118A  	fcall	_strncpy
  5263                           
  5264                           ;car_black_box.c: 131:     log[8] = (speed / 10) + '0';
  5265     1768  300A               	movlw	10
  5266     1769  00F2               	movwf	___awdiv@divisor
  5267     176A  3000               	movlw	0
  5268     176B  00F3               	movwf	___awdiv@divisor+1
  5269     176C  1283               	bcf	3,5	;RP0=0, select bank0
  5270     176D  1303               	bcf	3,6	;RP1=0, select bank0
  5271     176E  0848               	movf	log_car_event@speed,w
  5272     176F  00C9               	movwf	??_log_car_event
  5273     1770  01CA               	clrf	??_log_car_event+1
  5274     1771  0849               	movf	??_log_car_event,w
  5275     1772  00F4               	movwf	___awdiv@dividend
  5276     1773  084A               	movf	??_log_car_event+1,w
  5277     1774  00F5               	movwf	___awdiv@dividend+1
  5278     1775  160A  118A  279D  160A  118A  	fcall	___awdiv
  5279     177A  0872               	movf	?___awdiv,w
  5280     177B  3E30               	addlw	48
  5281     177C  1683               	bsf	3,5	;RP0=1, select bank1
  5282     177D  1303               	bcf	3,6	;RP1=0, select bank1
  5283     177E  00C1               	movwf	(_log^(0+128)+8)
  5284                           
  5285                           ;car_black_box.c: 132:     log[9] = (speed % 10) + '0';
  5286     177F  300A               	movlw	10
  5287     1780  00F2               	movwf	___awmod@divisor
  5288     1781  3000               	movlw	0
  5289     1782  00F3               	movwf	___awmod@divisor+1
  5290     1783  1283               	bcf	3,5	;RP0=0, select bank0
  5291     1784  1303               	bcf	3,6	;RP1=0, select bank0
  5292     1785  0848               	movf	log_car_event@speed,w
  5293     1786  00C9               	movwf	??_log_car_event
  5294     1787  01CA               	clrf	??_log_car_event+1
  5295     1788  0849               	movf	??_log_car_event,w
  5296     1789  00F4               	movwf	___awmod@dividend
  5297     178A  084A               	movf	??_log_car_event+1,w
  5298     178B  00F5               	movwf	___awmod@dividend+1
  5299     178C  160A  118A  2695  160A  118A  	fcall	___awmod
  5300     1791  0872               	movf	?___awmod,w
  5301     1792  3E30               	addlw	48
  5302     1793  1683               	bsf	3,5	;RP0=1, select bank1
  5303     1794  1303               	bcf	3,6	;RP1=0, select bank1
  5304     1795  00C2               	movwf	(_log^(0+128)+9)
  5305     1796                     l4142:
  5306                           
  5307                           ;car_black_box.c: 133:     log[10] = '\0';
  5308     1796  01C3               	clrf	(_log^(0+128)+10)
  5309     1797                     l4144:
  5310                           
  5311                           ;car_black_box.c: 135:     log_event();
  5312     1797  160A  118A  24E2  160A  118A  	fcall	_log_event
  5313     179C                     l307:
  5314     179C  0008               	return
  5315     179D                     __end_of_log_car_event:
  5316                           
  5317                           	psect	text9
  5318     14E2                     __ptext9:	
  5319 ;; *************** function _log_event *****************
  5320 ;; Defined at:
  5321 ;;		line 100 in file "car_black_box.c"
  5322 ;; Parameters:    Size  Location     Type
  5323 ;;		None
  5324 ;; Auto vars:     Size  Location     Type
  5325 ;;  addr            1    0[BANK0 ] unsigned char 
  5326 ;; Return value:  Size  Location     Type
  5327 ;;                  1    wreg      void 
  5328 ;; Registers used:
  5329 ;;		wreg, fsr0l, fsr0h, status,2, status,0, btemp+1, pclath, cstack
  5330 ;; Tracked objects:
  5331 ;;		On entry : 0/0
  5332 ;;		On exit  : 0/0
  5333 ;;		Unchanged: 0/0
  5334 ;; Data sizes:     COMMON   BANK0   BANK1   BANK3   BANK2
  5335 ;;      Params:         0       0       0       0       0
  5336 ;;      Locals:         0       1       0       0       0
  5337 ;;      Temps:          0       0       0       0       0
  5338 ;;      Totals:         0       1       0       0       0
  5339 ;;Total ram usage:        1 bytes
  5340 ;; Hardware stack levels used: 1
  5341 ;; Hardware stack levels required when called: 5
  5342 ;; This function calls:
  5343 ;;		___bmul
  5344 ;;		_eeprom_at24c04_str_write
  5345 ;; This function is called by:
  5346 ;;		_log_car_event
  5347 ;; This function uses a non-reentrant model
  5348 ;;
  5349                           
  5350     14E2                     _log_event:	
  5351                           ;psect for function _log_event
  5352                           
  5353     14E2                     l3888:	
  5354                           ;incstack = 0
  5355                           ; Regs used in _log_event: [wreg-fsr0h+status,2+status,0+btemp+1+pclath+cstack]
  5356                           
  5357     14E2                     l3890:
  5358                           
  5359                           ;car_black_box.c: 103:     pos++;
  5360     14E2  3001               	movlw	1
  5361     14E3  1283               	bcf	3,5	;RP0=0, select bank0
  5362     14E4  1303               	bcf	3,6	;RP1=0, select bank0
  5363     14E5  07E8               	addwf	_pos,f
  5364     14E6  1803               	skipnc
  5365     14E7  0AE9               	incf	_pos+1,f
  5366     14E8  3000               	movlw	0
  5367     14E9  07E9               	addwf	_pos+1,f
  5368     14EA                     l3892:
  5369                           
  5370                           ;car_black_box.c: 104:     if (pos == 10)
  5371     14EA  300A               	movlw	10
  5372     14EB  0668               	xorwf	_pos,w
  5373     14EC  0469               	iorwf	_pos+1,w
  5374     14ED  1D03               	btfss	3,2
  5375     14EE  2CF0               	goto	u3531
  5376     14EF  2CF1               	goto	u3530
  5377     14F0                     u3531:
  5378     14F0  2CF3               	goto	l3896
  5379     14F1                     u3530:
  5380     14F1                     l3894:
  5381                           
  5382                           ;car_black_box.c: 105:     {;car_black_box.c: 106:         pos = 0;
  5383     14F1  01E8               	clrf	_pos
  5384     14F2  01E9               	clrf	_pos+1
  5385     14F3                     l3896:
  5386                           
  5387                           ;car_black_box.c: 108:     addr = pos * 10 + 5;
  5388     14F3  300A               	movlw	10
  5389     14F4  00F2               	movwf	___bmul@multiplicand
  5390     14F5  0868               	movf	_pos,w
  5391     14F6  160A  118A  21DA  160A  118A  	fcall	___bmul
  5392     14FB  3E05               	addlw	5
  5393     14FC  1283               	bcf	3,5	;RP0=0, select bank0
  5394     14FD  1303               	bcf	3,6	;RP1=0, select bank0
  5395     14FE  00C5               	movwf	log_event@addr
  5396     14FF                     l3898:
  5397                           
  5398                           ;car_black_box.c: 111:     eeprom_at24c04_str_write(addr, log);
  5399     14FF  30B9               	movlw	(low (_log| 0))& (0+255)
  5400     1500  00F7               	movwf	eeprom_at24c04_str_write@data
  5401     1501  3000               	movlw	0
  5402     1502  00F8               	movwf	eeprom_at24c04_str_write@data+1
  5403     1503  0845               	movf	log_event@addr,w
  5404     1504  160A  118A  22F9  160A  118A  	fcall	_eeprom_at24c04_str_write
  5405     1509                     l3900:
  5406                           
  5407                           ;car_black_box.c: 113:     if (event_count < 9)
  5408     1509  1283               	bcf	3,5	;RP0=0, select bank0
  5409     150A  1303               	bcf	3,6	;RP1=0, select bank0
  5410     150B  0867               	movf	_event_count+1,w
  5411     150C  3A80               	xorlw	128
  5412     150D  00FF               	movwf	btemp+1
  5413     150E  3080               	movlw	128
  5414     150F  027F               	subwf	btemp+1,w
  5415     1510  1D03               	skipz
  5416     1511  2D14               	goto	u3545
  5417     1512  3009               	movlw	9
  5418     1513  0266               	subwf	_event_count,w
  5419     1514                     u3545:
  5420     1514  1803               	skipnc
  5421     1515  2D17               	goto	u3541
  5422     1516  2D18               	goto	u3540
  5423     1517                     u3541:
  5424     1517  2D20               	goto	l304
  5425     1518                     u3540:
  5426     1518                     l3902:
  5427                           
  5428                           ;car_black_box.c: 114:     {;car_black_box.c: 115:         event_count++;
  5429     1518  3001               	movlw	1
  5430     1519  1283               	bcf	3,5	;RP0=0, select bank0
  5431     151A  1303               	bcf	3,6	;RP1=0, select bank0
  5432     151B  07E6               	addwf	_event_count,f
  5433     151C  1803               	skipnc
  5434     151D  0AE7               	incf	_event_count+1,f
  5435     151E  3000               	movlw	0
  5436     151F  07E7               	addwf	_event_count+1,f
  5437     1520                     l304:
  5438     1520  0008               	return
  5439     1521                     __end_of_log_event:
  5440                           
  5441                           	psect	text10
  5442     14A8                     __ptext10:	
  5443 ;; *************** function _init_config *****************
  5444 ;; Defined at:
  5445 ;;		line 36 in file "main.c"
  5446 ;; Parameters:    Size  Location     Type
  5447 ;;		None
  5448 ;; Auto vars:     Size  Location     Type
  5449 ;;		None
  5450 ;; Return value:  Size  Location     Type
  5451 ;;                  1    wreg      void 
  5452 ;; Registers used:
  5453 ;;		wreg, status,2, status,0, pclath, cstack
  5454 ;; Tracked objects:
  5455 ;;		On entry : 0/0
  5456 ;;		On exit  : 0/0
  5457 ;;		Unchanged: 0/0
  5458 ;; Data sizes:     COMMON   BANK0   BANK1   BANK3   BANK2
  5459 ;;      Params:         0       0       0       0       0
  5460 ;;      Locals:         0       0       0       0       0
  5461 ;;      Temps:          0       0       0       0       0
  5462 ;;      Totals:         0       0       0       0       0
  5463 ;;Total ram usage:        0 bytes
  5464 ;; Hardware stack levels used: 1
  5465 ;; Hardware stack levels required when called: 6
  5466 ;; This function calls:
  5467 ;;		_init_adc
  5468 ;;		_init_clcd
  5469 ;;		_init_digital_keypad
  5470 ;;		_init_ds1307
  5471 ;;		_init_i2c
  5472 ;;		_init_timer2
  5473 ;;		_init_uart
  5474 ;; This function is called by:
  5475 ;;		_main
  5476 ;; This function uses a non-reentrant model
  5477 ;;
  5478                           
  5479     14A8                     _init_config:	
  5480                           ;psect for function _init_config
  5481                           
  5482     14A8                     l4120:	
  5483                           ;incstack = 0
  5484                           ; Regs used in _init_config: [wreg+status,2+status,0+pclath+cstack]
  5485                           
  5486                           
  5487                           ;main.c: 38:     log_car_event(event, speed);
  5488     14A8  160A  118A  2180  160A  118A  	fcall	_init_clcd
  5489     14AD                     l4122:
  5490                           
  5491                           ;main.c: 39: 
  5492     14AD  160A  118A  213E  160A  118A  	fcall	_init_adc
  5493     14B2                     l4124:
  5494                           
  5495                           ;main.c: 40:     while (1)
  5496     14B2  3000               	movlw	0
  5497     14B3  1283               	bcf	3,5	;RP0=0, select bank0
  5498     14B4  1303               	bcf	3,6	;RP1=0, select bank0
  5499     14B5  00CE               	movwf	init_i2c@baud+3
  5500     14B6  3001               	movlw	1
  5501     14B7  00CD               	movwf	init_i2c@baud+2
  5502     14B8  3086               	movlw	134
  5503     14B9  00CC               	movwf	init_i2c@baud+1
  5504     14BA  30A0               	movlw	160
  5505     14BB  00CB               	movwf	init_i2c@baud
  5506     14BC  160A  118A  2404  160A  118A  	fcall	_init_i2c
  5507     14C1                     l4126:
  5508                           
  5509                           ;main.c: 41:     {
  5510     14C1  160A  118A  21B6  160A  118A  	fcall	_init_ds1307
  5511     14C6                     l4128:
  5512                           
  5513                           ;main.c: 42:         speed = read_adc() / 10;
  5514     14C6  160A  118A  2132  160A  118A  	fcall	_init_digital_keypad
  5515                           
  5516                           ;main.c: 43: 
  5517     14CB  160A  118A  2198  160A  118A  	fcall	_init_timer2
  5518     14D0                     l4130:
  5519                           
  5520                           ;main.c: 44: 
  5521     14D0  3000               	movlw	0
  5522     14D1  1283               	bcf	3,5	;RP0=0, select bank0
  5523     14D2  1303               	bcf	3,6	;RP1=0, select bank0
  5524     14D3  00CE               	movwf	init_uart@baud+3
  5525     14D4  3000               	movlw	0
  5526     14D5  00CD               	movwf	init_uart@baud+2
  5527     14D6  3025               	movlw	37
  5528     14D7  00CC               	movwf	init_uart@baud+1
  5529     14D8  3080               	movlw	128
  5530     14D9  00CB               	movwf	init_uart@baud
  5531     14DA  160A  118A  23D4  160A  118A  	fcall	_init_uart
  5532     14DF                     l4132:
  5533                           
  5534                           ;main.c: 46:         {
  5535     14DF  170B               	bsf	11,6	;volatile
  5536     14E0                     l4134:
  5537                           
  5538                           ;main.c: 47:             speed = 99;
  5539     14E0  178B               	bsf	11,7	;volatile
  5540     14E1                     l187:
  5541     14E1  0008               	return
  5542     14E2                     __end_of_init_config:
  5543                           
  5544                           	psect	text11
  5545     13D4                     __ptext11:	
  5546 ;; *************** function _init_uart *****************
  5547 ;; Defined at:
  5548 ;;		line 4 in file "uart.c"
  5549 ;; Parameters:    Size  Location     Type
  5550 ;;  baud            4    6[BANK0 ] unsigned long 
  5551 ;; Auto vars:     Size  Location     Type
  5552 ;;		None
  5553 ;; Return value:  Size  Location     Type
  5554 ;;                  1    wreg      void 
  5555 ;; Registers used:
  5556 ;;		wreg, status,2, status,0, pclath, cstack
  5557 ;; Tracked objects:
  5558 ;;		On entry : 0/0
  5559 ;;		On exit  : 0/0
  5560 ;;		Unchanged: 0/0
  5561 ;; Data sizes:     COMMON   BANK0   BANK1   BANK3   BANK2
  5562 ;;      Params:         0       4       0       0       0
  5563 ;;      Locals:         0       0       0       0       0
  5564 ;;      Temps:          0       4       0       0       0
  5565 ;;      Totals:         0       8       0       0       0
  5566 ;;Total ram usage:        8 bytes
  5567 ;; Hardware stack levels used: 1
  5568 ;; Hardware stack levels required when called: 2
  5569 ;; This function calls:
  5570 ;;		___lldiv
  5571 ;; This function is called by:
  5572 ;;		_init_config
  5573 ;; This function uses a non-reentrant model
  5574 ;;
  5575                           
  5576     13D4                     _init_uart:	
  5577                           ;psect for function _init_uart
  5578                           
  5579     13D4                     l3878:	
  5580                           ;incstack = 0
  5581                           ; Regs used in _init_uart: [wreg+status,2+status,0+pclath+cstack]
  5582                           
  5583                           
  5584                           ;uart.c: 4: void init_uart(unsigned long baud);uart.c: 5: {;uart.c: 7:     SPEN = 1;
  5585     13D4  1283               	bcf	3,5	;RP0=0, select bank0
  5586     13D5  1303               	bcf	3,6	;RP1=0, select bank0
  5587     13D6  1798               	bsf	24,7	;volatile
  5588                           
  5589                           ;uart.c: 10:     CREN = 1;
  5590     13D7  1618               	bsf	24,4	;volatile
  5591     13D8                     l3880:
  5592                           
  5593                           ;uart.c: 13:     SPBRG = (20000000 / (16 * baud)) - 1;
  5594     13D8  084B               	movf	init_uart@baud,w
  5595     13D9  00CF               	movwf	??_init_uart
  5596     13DA  084C               	movf	init_uart@baud+1,w
  5597     13DB  00D0               	movwf	??_init_uart+1
  5598     13DC  084D               	movf	init_uart@baud+2,w
  5599     13DD  00D1               	movwf	??_init_uart+2
  5600     13DE  084E               	movf	init_uart@baud+3,w
  5601     13DF  00D2               	movwf	??_init_uart+3
  5602     13E0  3004               	movlw	4
  5603     13E1                     u3525:
  5604     13E1  1003               	clrc
  5605     13E2  0DCF               	rlf	??_init_uart,f
  5606     13E3  0DD0               	rlf	??_init_uart+1,f
  5607     13E4  0DD1               	rlf	??_init_uart+2,f
  5608     13E5  0DD2               	rlf	??_init_uart+3,f
  5609     13E6                     u3520:
  5610     13E6  3EFF               	addlw	-1
  5611     13E7  1D03               	skipz
  5612     13E8  2BE1               	goto	u3525
  5613     13E9  0852               	movf	??_init_uart+3,w
  5614     13EA  00F5               	movwf	___lldiv@divisor+3
  5615     13EB  0851               	movf	??_init_uart+2,w
  5616     13EC  00F4               	movwf	___lldiv@divisor+2
  5617     13ED  0850               	movf	??_init_uart+1,w
  5618     13EE  00F3               	movwf	___lldiv@divisor+1
  5619     13EF  084F               	movf	??_init_uart,w
  5620     13F0  00F2               	movwf	___lldiv@divisor
  5621     13F1  3001               	movlw	1
  5622     13F2  00F9               	movwf	___lldiv@dividend+3
  5623     13F3  3031               	movlw	49
  5624     13F4  00F8               	movwf	___lldiv@dividend+2
  5625     13F5  302D               	movlw	45
  5626     13F6  00F7               	movwf	___lldiv@dividend+1
  5627     13F7  3000               	movlw	0
  5628     13F8  00F6               	movwf	___lldiv@dividend
  5629     13F9  120A  158A  2149  160A  118A  	fcall	___lldiv
  5630     13FE  0872               	movf	?___lldiv,w
  5631     13FF  3EFF               	addlw	255
  5632     1400  1683               	bsf	3,5	;RP0=1, select bank1
  5633     1401  1303               	bcf	3,6	;RP1=0, select bank1
  5634     1402  0099               	movwf	25	;volatile
  5635     1403                     l533:
  5636     1403  0008               	return
  5637     1404                     __end_of_init_uart:
  5638                           
  5639                           	psect	text12
  5640     1198                     __ptext12:	
  5641 ;; *************** function _init_timer2 *****************
  5642 ;; Defined at:
  5643 ;;		line 3 in file "timers.c"
  5644 ;; Parameters:    Size  Location     Type
  5645 ;;		None
  5646 ;; Auto vars:     Size  Location     Type
  5647 ;;		None
  5648 ;; Return value:  Size  Location     Type
  5649 ;;                  1    wreg      void 
  5650 ;; Registers used:
  5651 ;;		None
  5652 ;; Tracked objects:
  5653 ;;		On entry : 0/0
  5654 ;;		On exit  : 0/0
  5655 ;;		Unchanged: 0/0
  5656 ;; Data sizes:     COMMON   BANK0   BANK1   BANK3   BANK2
  5657 ;;      Params:         0       0       0       0       0
  5658 ;;      Locals:         0       0       0       0       0
  5659 ;;      Temps:          0       0       0       0       0
  5660 ;;      Totals:         0       0       0       0       0
  5661 ;;Total ram usage:        0 bytes
  5662 ;; Hardware stack levels used: 1
  5663 ;; Hardware stack levels required when called: 1
  5664 ;; This function calls:
  5665 ;;		Nothing
  5666 ;; This function is called by:
  5667 ;;		_init_config
  5668 ;; This function uses a non-reentrant model
  5669 ;;
  5670                           
  5671     1198                     _init_timer2:	
  5672                           ;psect for function _init_timer2
  5673                           
  5674     1198                     l3876:	
  5675                           ;incstack = 0
  5676                           ; Regs used in _init_timer2: []
  5677                           
  5678                           
  5679                           ;timers.c: 6:     T2CKPS0 = 1;
  5680     1198  1283               	bcf	3,5	;RP0=0, select bank0
  5681     1199  1303               	bcf	3,6	;RP1=0, select bank0
  5682     119A  1412               	bsf	18,0	;volatile
  5683                           
  5684                           ;timers.c: 7:     T2CKPS1 = 1;
  5685     119B  1492               	bsf	18,1	;volatile
  5686                           
  5687                           ;timers.c: 10:     PR2 = 250;
  5688     119C  30FA               	movlw	250
  5689     119D  1683               	bsf	3,5	;RP0=1, select bank1
  5690     119E  1303               	bcf	3,6	;RP1=0, select bank1
  5691     119F  0092               	movwf	18	;volatile
  5692                           
  5693                           ;timers.c: 13:     TMR2IE = 1;
  5694     11A0  148C               	bsf	12,1	;volatile
  5695                           
  5696                           ;timers.c: 16:     TMR2ON = 1;
  5697     11A1  1283               	bcf	3,5	;RP0=0, select bank0
  5698     11A2  1303               	bcf	3,6	;RP1=0, select bank0
  5699     11A3  1512               	bsf	18,2	;volatile
  5700     11A4                     l499:
  5701     11A4  0008               	return
  5702     11A5                     __end_of_init_timer2:
  5703                           
  5704                           	psect	text13
  5705     1404                     __ptext13:	
  5706 ;; *************** function _init_i2c *****************
  5707 ;; Defined at:
  5708 ;;		line 4 in file "i2c.c"
  5709 ;; Parameters:    Size  Location     Type
  5710 ;;  baud            4    6[BANK0 ] unsigned long 
  5711 ;; Auto vars:     Size  Location     Type
  5712 ;;		None
  5713 ;; Return value:  Size  Location     Type
  5714 ;;                  1    wreg      void 
  5715 ;; Registers used:
  5716 ;;		wreg, status,2, status,0, pclath, cstack
  5717 ;; Tracked objects:
  5718 ;;		On entry : 0/0
  5719 ;;		On exit  : 0/0
  5720 ;;		Unchanged: 0/0
  5721 ;; Data sizes:     COMMON   BANK0   BANK1   BANK3   BANK2
  5722 ;;      Params:         0       4       0       0       0
  5723 ;;      Locals:         0       0       0       0       0
  5724 ;;      Temps:          0       4       0       0       0
  5725 ;;      Totals:         0       8       0       0       0
  5726 ;;Total ram usage:        8 bytes
  5727 ;; Hardware stack levels used: 1
  5728 ;; Hardware stack levels required when called: 2
  5729 ;; This function calls:
  5730 ;;		___lldiv
  5731 ;; This function is called by:
  5732 ;;		_init_config
  5733 ;; This function uses a non-reentrant model
  5734 ;;
  5735                           
  5736     1404                     _init_i2c:	
  5737                           ;psect for function _init_i2c
  5738                           
  5739     1404                     l3866:	
  5740                           ;incstack = 0
  5741                           ; Regs used in _init_i2c: [wreg+status,2+status,0+pclath+cstack]
  5742                           
  5743                           
  5744                           ;i2c.c: 4: void init_i2c(unsigned long baud);i2c.c: 5: {;i2c.c: 7:     SSPM3 = 1;
  5745     1404  1283               	bcf	3,5	;RP0=0, select bank0
  5746     1405  1303               	bcf	3,6	;RP1=0, select bank0
  5747     1406  1594               	bsf	20,3	;volatile
  5748     1407                     l3868:
  5749                           
  5750                           ;i2c.c: 10:     SSPADD = (unsigned char) (20000000 / (4 * baud)) - 1;
  5751     1407  084B               	movf	init_i2c@baud,w
  5752     1408  00CF               	movwf	??_init_i2c
  5753     1409  084C               	movf	init_i2c@baud+1,w
  5754     140A  00D0               	movwf	??_init_i2c+1
  5755     140B  084D               	movf	init_i2c@baud+2,w
  5756     140C  00D1               	movwf	??_init_i2c+2
  5757     140D  084E               	movf	init_i2c@baud+3,w
  5758     140E  00D2               	movwf	??_init_i2c+3
  5759     140F  3002               	movlw	2
  5760     1410                     u3515:
  5761     1410  1003               	clrc
  5762     1411  0DCF               	rlf	??_init_i2c,f
  5763     1412  0DD0               	rlf	??_init_i2c+1,f
  5764     1413  0DD1               	rlf	??_init_i2c+2,f
  5765     1414  0DD2               	rlf	??_init_i2c+3,f
  5766     1415                     u3510:
  5767     1415  3EFF               	addlw	-1
  5768     1416  1D03               	skipz
  5769     1417  2C10               	goto	u3515
  5770     1418  0852               	movf	??_init_i2c+3,w
  5771     1419  00F5               	movwf	___lldiv@divisor+3
  5772     141A  0851               	movf	??_init_i2c+2,w
  5773     141B  00F4               	movwf	___lldiv@divisor+2
  5774     141C  0850               	movf	??_init_i2c+1,w
  5775     141D  00F3               	movwf	___lldiv@divisor+1
  5776     141E  084F               	movf	??_init_i2c,w
  5777     141F  00F2               	movwf	___lldiv@divisor
  5778     1420  3001               	movlw	1
  5779     1421  00F9               	movwf	___lldiv@dividend+3
  5780     1422  3031               	movlw	49
  5781     1423  00F8               	movwf	___lldiv@dividend+2
  5782     1424  302D               	movlw	45
  5783     1425  00F7               	movwf	___lldiv@dividend+1
  5784     1426  3000               	movlw	0
  5785     1427  00F6               	movwf	___lldiv@dividend
  5786     1428  120A  158A  2149  160A  118A  	fcall	___lldiv
  5787     142D  0872               	movf	?___lldiv,w
  5788     142E  3EFF               	addlw	255
  5789     142F  1683               	bsf	3,5	;RP0=1, select bank1
  5790     1430  1303               	bcf	3,6	;RP1=0, select bank1
  5791     1431  0093               	movwf	19	;volatile
  5792     1432                     l3870:
  5793                           
  5794                           ;i2c.c: 13:     SSPEN = 1;
  5795     1432  1283               	bcf	3,5	;RP0=0, select bank0
  5796     1433  1303               	bcf	3,6	;RP1=0, select bank0
  5797     1434  1694               	bsf	20,5	;volatile
  5798     1435                     l84:
  5799     1435  0008               	return
  5800     1436                     __end_of_init_i2c:
  5801                           
  5802                           	psect	text14
  5803     0949                     __ptext14:	
  5804 ;; *************** function ___lldiv *****************
  5805 ;; Defined at:
  5806 ;;		line 5 in file "C:\Program Files\Microchip\xc8\v2.50\pic\sources\c99\common\__lldiv.c"
  5807 ;; Parameters:    Size  Location     Type
  5808 ;;  divisor         4    2[COMMON] unsigned long 
  5809 ;;  dividend        4    6[COMMON] unsigned long 
  5810 ;; Auto vars:     Size  Location     Type
  5811 ;;  quotient        4    1[BANK0 ] unsigned long 
  5812 ;;  counter         1    5[BANK0 ] unsigned char 
  5813 ;; Return value:  Size  Location     Type
  5814 ;;                  4    2[COMMON] unsigned long 
  5815 ;; Registers used:
  5816 ;;		wreg, status,2, status,0
  5817 ;; Tracked objects:
  5818 ;;		On entry : 0/0
  5819 ;;		On exit  : 0/0
  5820 ;;		Unchanged: 0/0
  5821 ;; Data sizes:     COMMON   BANK0   BANK1   BANK3   BANK2
  5822 ;;      Params:         8       0       0       0       0
  5823 ;;      Locals:         0       5       0       0       0
  5824 ;;      Temps:          0       1       0       0       0
  5825 ;;      Totals:         8       6       0       0       0
  5826 ;;Total ram usage:       14 bytes
  5827 ;; Hardware stack levels used: 1
  5828 ;; Hardware stack levels required when called: 1
  5829 ;; This function calls:
  5830 ;;		Nothing
  5831 ;; This function is called by:
  5832 ;;		_init_i2c
  5833 ;;		_init_uart
  5834 ;; This function uses a non-reentrant model
  5835 ;;
  5836                           
  5837     0949                     ___lldiv:	
  5838                           ;psect for function ___lldiv
  5839                           
  5840     0949                     l3820:	
  5841                           ;incstack = 0
  5842                           ; Regs used in ___lldiv: [wreg+status,2+status,0]
  5843                           
  5844     0949  3000               	movlw	0
  5845     094A  1283               	bcf	3,5	;RP0=0, select bank0
  5846     094B  1303               	bcf	3,6	;RP1=0, select bank0
  5847     094C  00C9               	movwf	___lldiv@quotient+3
  5848     094D  3000               	movlw	0
  5849     094E  00C8               	movwf	___lldiv@quotient+2
  5850     094F  3000               	movlw	0
  5851     0950  00C7               	movwf	___lldiv@quotient+1
  5852     0951  3000               	movlw	0
  5853     0952  00C6               	movwf	___lldiv@quotient
  5854     0953  0875               	movf	___lldiv@divisor+3,w
  5855     0954  0474               	iorwf	___lldiv@divisor+2,w
  5856     0955  0473               	iorwf	___lldiv@divisor+1,w
  5857     0956  0472               	iorwf	___lldiv@divisor,w
  5858     0957  1903               	skipnz
  5859     0958  295A               	goto	u3431
  5860     0959  295B               	goto	u3430
  5861     095A                     u3431:
  5862     095A  29A6               	goto	l3840
  5863     095B                     u3430:
  5864     095B                     l3822:
  5865     095B  3001               	movlw	1
  5866     095C  00CA               	movwf	___lldiv@counter
  5867     095D  2969               	goto	l3826
  5868     095E                     l3824:
  5869     095E  3001               	movlw	1
  5870     095F  00C5               	movwf	??___lldiv
  5871     0960                     u3445:
  5872     0960  1003               	clrc
  5873     0961  0DF2               	rlf	___lldiv@divisor,f
  5874     0962  0DF3               	rlf	___lldiv@divisor+1,f
  5875     0963  0DF4               	rlf	___lldiv@divisor+2,f
  5876     0964  0DF5               	rlf	___lldiv@divisor+3,f
  5877     0965  0BC5               	decfsz	??___lldiv,f
  5878     0966  2960               	goto	u3445
  5879     0967  3001               	movlw	1
  5880     0968  07CA               	addwf	___lldiv@counter,f
  5881     0969                     l3826:
  5882     0969  1FF5               	btfss	___lldiv@divisor+3,7
  5883     096A  296C               	goto	u3451
  5884     096B  296D               	goto	u3450
  5885     096C                     u3451:
  5886     096C  295E               	goto	l3824
  5887     096D                     u3450:
  5888     096D                     l3828:
  5889     096D  3001               	movlw	1
  5890     096E  00C5               	movwf	??___lldiv
  5891     096F                     u3465:
  5892     096F  1003               	clrc
  5893     0970  0DC6               	rlf	___lldiv@quotient,f
  5894     0971  0DC7               	rlf	___lldiv@quotient+1,f
  5895     0972  0DC8               	rlf	___lldiv@quotient+2,f
  5896     0973  0DC9               	rlf	___lldiv@quotient+3,f
  5897     0974  0BC5               	decfsz	??___lldiv,f
  5898     0975  296F               	goto	u3465
  5899     0976                     l3830:
  5900     0976  0875               	movf	___lldiv@divisor+3,w
  5901     0977  0279               	subwf	___lldiv@dividend+3,w
  5902     0978  1D03               	skipz
  5903     0979  2984               	goto	u3475
  5904     097A  0874               	movf	___lldiv@divisor+2,w
  5905     097B  0278               	subwf	___lldiv@dividend+2,w
  5906     097C  1D03               	skipz
  5907     097D  2984               	goto	u3475
  5908     097E  0873               	movf	___lldiv@divisor+1,w
  5909     097F  0277               	subwf	___lldiv@dividend+1,w
  5910     0980  1D03               	skipz
  5911     0981  2984               	goto	u3475
  5912     0982  0872               	movf	___lldiv@divisor,w
  5913     0983  0276               	subwf	___lldiv@dividend,w
  5914     0984                     u3475:
  5915     0984  1C03               	skipc
  5916     0985  2987               	goto	u3471
  5917     0986  2988               	goto	u3470
  5918     0987                     u3471:
  5919     0987  2997               	goto	l3836
  5920     0988                     u3470:
  5921     0988                     l3832:
  5922     0988  0872               	movf	___lldiv@divisor,w
  5923     0989  02F6               	subwf	___lldiv@dividend,f
  5924     098A  0873               	movf	___lldiv@divisor+1,w
  5925     098B  1C03               	skipc
  5926     098C  0F73               	incfsz	___lldiv@divisor+1,w
  5927     098D  02F7               	subwf	___lldiv@dividend+1,f
  5928     098E  0874               	movf	___lldiv@divisor+2,w
  5929     098F  1C03               	skipc
  5930     0990  0F74               	incfsz	___lldiv@divisor+2,w
  5931     0991  02F8               	subwf	___lldiv@dividend+2,f
  5932     0992  0875               	movf	___lldiv@divisor+3,w
  5933     0993  1C03               	skipc
  5934     0994  0F75               	incfsz	___lldiv@divisor+3,w
  5935     0995  02F9               	subwf	___lldiv@dividend+3,f
  5936     0996                     l3834:
  5937     0996  1446               	bsf	___lldiv@quotient,0
  5938     0997                     l3836:
  5939     0997  3001               	movlw	1
  5940     0998                     u3485:
  5941     0998  1003               	clrc
  5942     0999  0CF5               	rrf	___lldiv@divisor+3,f
  5943     099A  0CF4               	rrf	___lldiv@divisor+2,f
  5944     099B  0CF3               	rrf	___lldiv@divisor+1,f
  5945     099C  0CF2               	rrf	___lldiv@divisor,f
  5946     099D  3EFF               	addlw	-1
  5947     099E  1D03               	skipz
  5948     099F  2998               	goto	u3485
  5949     09A0                     l3838:
  5950     09A0  3001               	movlw	1
  5951     09A1  02CA               	subwf	___lldiv@counter,f
  5952     09A2  1D03               	btfss	3,2
  5953     09A3  29A5               	goto	u3491
  5954     09A4  29A6               	goto	u3490
  5955     09A5                     u3491:
  5956     09A5  296D               	goto	l3828
  5957     09A6                     u3490:
  5958     09A6                     l3840:
  5959     09A6  0849               	movf	___lldiv@quotient+3,w
  5960     09A7  00F5               	movwf	?___lldiv+3
  5961     09A8  0848               	movf	___lldiv@quotient+2,w
  5962     09A9  00F4               	movwf	?___lldiv+2
  5963     09AA  0847               	movf	___lldiv@quotient+1,w
  5964     09AB  00F3               	movwf	?___lldiv+1
  5965     09AC  0846               	movf	___lldiv@quotient,w
  5966     09AD  00F2               	movwf	?___lldiv
  5967     09AE                     l673:
  5968     09AE  0008               	return
  5969     09AF                     __end_of___lldiv:
  5970                           
  5971                           	psect	text15
  5972     11B6                     __ptext15:	
  5973 ;; *************** function _init_ds1307 *****************
  5974 ;; Defined at:
  5975 ;;		line 5 in file "ds1307.c"
  5976 ;; Parameters:    Size  Location     Type
  5977 ;;		None
  5978 ;; Auto vars:     Size  Location     Type
  5979 ;;  dummy           1    6[COMMON] unsigned char 
  5980 ;; Return value:  Size  Location     Type
  5981 ;;                  1    wreg      void 
  5982 ;; Registers used:
  5983 ;;		wreg, status,2, status,0, pclath, cstack
  5984 ;; Tracked objects:
  5985 ;;		On entry : 0/0
  5986 ;;		On exit  : 0/0
  5987 ;;		Unchanged: 0/0
  5988 ;; Data sizes:     COMMON   BANK0   BANK1   BANK3   BANK2
  5989 ;;      Params:         0       0       0       0       0
  5990 ;;      Locals:         1       0       0       0       0
  5991 ;;      Temps:          0       0       0       0       0
  5992 ;;      Totals:         1       0       0       0       0
  5993 ;;Total ram usage:        1 bytes
  5994 ;; Hardware stack levels used: 1
  5995 ;; Hardware stack levels required when called: 5
  5996 ;; This function calls:
  5997 ;;		_read_ds1307
  5998 ;;		_write_ds1307
  5999 ;; This function is called by:
  6000 ;;		_init_config
  6001 ;; This function uses a non-reentrant model
  6002 ;;
  6003                           
  6004     11B6                     _init_ds1307:	
  6005                           ;psect for function _init_ds1307
  6006                           
  6007     11B6                     l3860:	
  6008                           ;incstack = 0
  6009                           ; Regs used in _init_ds1307: [wreg+status,2+status,0+pclath+cstack]
  6010                           
  6011                           
  6012                           ;ds1307.c: 7:     unsigned char dummy;;ds1307.c: 9:     dummy = read_ds1307(0x00);
  6013     11B6  3000               	movlw	0
  6014     11B7  160A  118A  2324  160A  118A  	fcall	_read_ds1307
  6015     11BC  00F6               	movwf	init_ds1307@dummy
  6016     11BD                     l3862:
  6017                           
  6018                           ;ds1307.c: 10:     dummy = dummy & 0x7F;
  6019     11BD  307F               	movlw	127
  6020     11BE  05F6               	andwf	init_ds1307@dummy,f
  6021     11BF                     l3864:
  6022                           
  6023                           ;ds1307.c: 11:     write_ds1307(0x00, dummy);
  6024     11BF  0876               	movf	init_ds1307@dummy,w
  6025     11C0  00F3               	movwf	write_ds1307@data
  6026     11C1  3000               	movlw	0
  6027     11C2  160A  118A  222E  160A  118A  	fcall	_write_ds1307
  6028     11C7                     l49:
  6029     11C7  0008               	return
  6030     11C8                     __end_of_init_ds1307:
  6031                           
  6032                           	psect	text16
  6033     1132                     __ptext16:	
  6034 ;; *************** function _init_digital_keypad *****************
  6035 ;; Defined at:
  6036 ;;		line 4 in file "digital_keypad.c"
  6037 ;; Parameters:    Size  Location     Type
  6038 ;;		None
  6039 ;; Auto vars:     Size  Location     Type
  6040 ;;		None
  6041 ;; Return value:  Size  Location     Type
  6042 ;;                  1    wreg      void 
  6043 ;; Registers used:
  6044 ;;		wreg, status,2
  6045 ;; Tracked objects:
  6046 ;;		On entry : 0/0
  6047 ;;		On exit  : 0/0
  6048 ;;		Unchanged: 0/0
  6049 ;; Data sizes:     COMMON   BANK0   BANK1   BANK3   BANK2
  6050 ;;      Params:         0       0       0       0       0
  6051 ;;      Locals:         0       0       0       0       0
  6052 ;;      Temps:          0       0       0       0       0
  6053 ;;      Totals:         0       0       0       0       0
  6054 ;;Total ram usage:        0 bytes
  6055 ;; Hardware stack levels used: 1
  6056 ;; Hardware stack levels required when called: 1
  6057 ;; This function calls:
  6058 ;;		Nothing
  6059 ;; This function is called by:
  6060 ;;		_init_config
  6061 ;; This function uses a non-reentrant model
  6062 ;;
  6063                           
  6064     1132                     _init_digital_keypad:	
  6065                           ;psect for function _init_digital_keypad
  6066                           
  6067     1132                     l3874:	
  6068                           ;incstack = 0
  6069                           ; Regs used in _init_digital_keypad: [wreg+status,2]
  6070                           
  6071                           
  6072                           ;digital_keypad.c: 7:     TRISB = TRISB | 0x3F;
  6073     1132  1683               	bsf	3,5	;RP0=1, select bank1
  6074     1133  1303               	bcf	3,6	;RP1=0, select bank1
  6075     1134  0806               	movf	6,w	;volatile
  6076     1135  383F               	iorlw	63
  6077     1136  0086               	movwf	6	;volatile
  6078     1137                     l444:
  6079     1137  0008               	return
  6080     1138                     __end_of_init_digital_keypad:
  6081                           
  6082                           	psect	text17
  6083     1180                     __ptext17:	
  6084 ;; *************** function _init_clcd *****************
  6085 ;; Defined at:
  6086 ;;		line 37 in file "clcd.c"
  6087 ;; Parameters:    Size  Location     Type
  6088 ;;		None
  6089 ;; Auto vars:     Size  Location     Type
  6090 ;;		None
  6091 ;; Return value:  Size  Location     Type
  6092 ;;                  1    wreg      void 
  6093 ;; Registers used:
  6094 ;;		wreg, status,2, status,0, pclath, cstack
  6095 ;; Tracked objects:
  6096 ;;		On entry : 0/0
  6097 ;;		On exit  : 0/0
  6098 ;;		Unchanged: 0/0
  6099 ;; Data sizes:     COMMON   BANK0   BANK1   BANK3   BANK2
  6100 ;;      Params:         0       0       0       0       0
  6101 ;;      Locals:         0       0       0       0       0
  6102 ;;      Temps:          0       0       0       0       0
  6103 ;;      Totals:         0       0       0       0       0
  6104 ;;Total ram usage:        0 bytes
  6105 ;; Hardware stack levels used: 1
  6106 ;; Hardware stack levels required when called: 3
  6107 ;; This function calls:
  6108 ;;		_init_display_controller
  6109 ;; This function is called by:
  6110 ;;		_init_config
  6111 ;; This function uses a non-reentrant model
  6112 ;;
  6113                           
  6114     1180                     _init_clcd:	
  6115                           ;psect for function _init_clcd
  6116                           
  6117     1180                     l3844:	
  6118                           ;incstack = 0
  6119                           ; Regs used in _init_clcd: [wreg+status,2+status,0+pclath+cstack]
  6120                           
  6121                           
  6122                           ;clcd.c: 40:     TRISD = 0x00;
  6123     1180  1683               	bsf	3,5	;RP0=1, select bank1
  6124     1181  1303               	bcf	3,6	;RP1=0, select bank1
  6125     1182  0188               	clrf	8	;volatile
  6126     1183                     l3846:
  6127                           
  6128                           ;clcd.c: 43:     TRISE2 = 0;
  6129     1183  1109               	bcf	9,2	;volatile
  6130     1184                     l3848:
  6131                           
  6132                           ;clcd.c: 44:     TRISE1 = 0;
  6133     1184  1089               	bcf	9,1	;volatile
  6134     1185                     l3850:
  6135                           
  6136                           ;clcd.c: 46:     init_display_controller();
  6137     1185  160A  118A  26EC  160A  118A  	fcall	_init_display_controller
  6138     118A                     l23:
  6139     118A  0008               	return
  6140     118B                     __end_of_init_clcd:
  6141                           
  6142                           	psect	text18
  6143     16EC                     __ptext18:	
  6144 ;; *************** function _init_display_controller *****************
  6145 ;; Defined at:
  6146 ;;		line 16 in file "clcd.c"
  6147 ;; Parameters:    Size  Location     Type
  6148 ;;		None
  6149 ;; Auto vars:     Size  Location     Type
  6150 ;;		None
  6151 ;; Return value:  Size  Location     Type
  6152 ;;                  1    wreg      void 
  6153 ;; Registers used:
  6154 ;;		wreg, status,2, status,0, pclath, cstack
  6155 ;; Tracked objects:
  6156 ;;		On entry : 0/0
  6157 ;;		On exit  : 0/0
  6158 ;;		Unchanged: 0/0
  6159 ;; Data sizes:     COMMON   BANK0   BANK1   BANK3   BANK2
  6160 ;;      Params:         0       0       0       0       0
  6161 ;;      Locals:         0       0       0       0       0
  6162 ;;      Temps:          2       0       0       0       0
  6163 ;;      Totals:         2       0       0       0       0
  6164 ;;Total ram usage:        2 bytes
  6165 ;; Hardware stack levels used: 1
  6166 ;; Hardware stack levels required when called: 2
  6167 ;; This function calls:
  6168 ;;		_clcd_write
  6169 ;; This function is called by:
  6170 ;;		_init_clcd
  6171 ;; This function uses a non-reentrant model
  6172 ;;
  6173                           
  6174     16EC                     _init_display_controller:	
  6175                           ;psect for function _init_display_controller
  6176                           
  6177     16EC                     l3754:	
  6178                           ;incstack = 0
  6179                           ; Regs used in _init_display_controller: [wreg+status,2+status,0+pclath+cstack]
  6180                           
  6181                           
  6182                           ;clcd.c: 19:     _delay((unsigned long)((30)*(20000000/4000.0)));
  6183     16EC  30C3               	movlw	195
  6184     16ED  00F7               	movwf	??_init_display_controller+1
  6185     16EE  30CD               	movlw	205
  6186     16EF  00F6               	movwf	??_init_display_controller
  6187     16F0                     u5047:
  6188     16F0  0BF6               	decfsz	??_init_display_controller,f
  6189     16F1  2EF0               	goto	u5047
  6190     16F2  0BF7               	decfsz	??_init_display_controller+1,f
  6191     16F3  2EF0               	goto	u5047
  6192     16F4                     l3756:
  6193                           
  6194                           ;clcd.c: 22:     clcd_write(0x33, 0);
  6195     16F4  01F2               	clrf	clcd_write@mode
  6196     16F5  3033               	movlw	51
  6197     16F6  160A  118A  224C  160A  118A  	fcall	_clcd_write
  6198     16FB                     l3758:
  6199                           
  6200                           ;clcd.c: 23:     _delay((unsigned long)((4100)*(20000000/4000000.0)));
  6201     16FB  301B               	movlw	27
  6202     16FC  00F7               	movwf	??_init_display_controller+1
  6203     16FD  309E               	movlw	158
  6204     16FE  00F6               	movwf	??_init_display_controller
  6205     16FF                     u5057:
  6206     16FF  0BF6               	decfsz	??_init_display_controller,f
  6207     1700  2EFF               	goto	u5057
  6208     1701  0BF7               	decfsz	??_init_display_controller+1,f
  6209     1702  2EFF               	goto	u5057
  6210     1703  0000               	nop
  6211                           
  6212                           ;clcd.c: 24:     clcd_write(0x33, 0);
  6213     1704  01F2               	clrf	clcd_write@mode
  6214     1705  3033               	movlw	51
  6215     1706  160A  118A  224C  160A  118A  	fcall	_clcd_write
  6216     170B                     l3760:
  6217                           
  6218                           ;clcd.c: 25:     _delay((unsigned long)((100)*(20000000/4000000.0)));
  6219     170B  30A6               	movlw	166
  6220     170C  00F6               	movwf	??_init_display_controller
  6221     170D                     u5067:
  6222     170D  0BF6               	decfsz	??_init_display_controller,f
  6223     170E  2F0D               	goto	u5067
  6224     170F  0000               	nop
  6225     1710                     l3762:
  6226                           
  6227                           ;clcd.c: 26:     clcd_write(0x33, 0);
  6228     1710  01F2               	clrf	clcd_write@mode
  6229     1711  3033               	movlw	51
  6230     1712  160A  118A  224C  160A  118A  	fcall	_clcd_write
  6231     1717                     l3764:
  6232                           
  6233                           ;clcd.c: 27:     _delay((unsigned long)((1)*(20000000/4000000.0)));
  6234     1717  2F18               	nop2	;2 cycle nop
  6235     1718  2F19               	nop2	;2 cycle nop
  6236     1719  0000               	nop
  6237     171A                     l3766:
  6238                           
  6239                           ;clcd.c: 29:     clcd_write(0x38, 0);
  6240     171A  01F2               	clrf	clcd_write@mode
  6241     171B  3038               	movlw	56
  6242     171C  160A  118A  224C  160A  118A  	fcall	_clcd_write
  6243     1721                     l3768:
  6244                           
  6245                           ;clcd.c: 30:     _delay((unsigned long)((100)*(20000000/4000000.0)));
  6246     1721  30A6               	movlw	166
  6247     1722  00F6               	movwf	??_init_display_controller
  6248     1723                     u5077:
  6249     1723  0BF6               	decfsz	??_init_display_controller,f
  6250     1724  2F23               	goto	u5077
  6251     1725  0000               	nop
  6252                           
  6253                           ;clcd.c: 31:     clcd_write(0x01, 0);
  6254     1726  01F2               	clrf	clcd_write@mode
  6255     1727  3001               	movlw	1
  6256     1728  160A  118A  224C  160A  118A  	fcall	_clcd_write
  6257     172D                     l3770:
  6258                           
  6259                           ;clcd.c: 32:     _delay((unsigned long)((500)*(20000000/4000000.0)));
  6260     172D  3004               	movlw	4
  6261     172E  00F7               	movwf	??_init_display_controller+1
  6262     172F  303D               	movlw	61
  6263     1730  00F6               	movwf	??_init_display_controller
  6264     1731                     u5087:
  6265     1731  0BF6               	decfsz	??_init_display_controller,f
  6266     1732  2F31               	goto	u5087
  6267     1733  0BF7               	decfsz	??_init_display_controller+1,f
  6268     1734  2F31               	goto	u5087
  6269     1735  2F36               	nop2
  6270     1736                     l3772:
  6271                           
  6272                           ;clcd.c: 33:     clcd_write(0x0C, 0);
  6273     1736  01F2               	clrf	clcd_write@mode
  6274     1737  300C               	movlw	12
  6275     1738  160A  118A  224C  160A  118A  	fcall	_clcd_write
  6276                           
  6277                           ;clcd.c: 34:     _delay((unsigned long)((100)*(20000000/4000000.0)));
  6278     173D  30A6               	movlw	166
  6279     173E  00F6               	movwf	??_init_display_controller
  6280     173F                     u5097:
  6281     173F  0BF6               	decfsz	??_init_display_controller,f
  6282     1740  2F3F               	goto	u5097
  6283     1741  0000               	nop
  6284     1742                     l20:
  6285     1742  0008               	return
  6286     1743                     __end_of_init_display_controller:
  6287                           
  6288                           	psect	text19
  6289     113E                     __ptext19:	
  6290 ;; *************** function _init_adc *****************
  6291 ;; Defined at:
  6292 ;;		line 3 in file "adc.c"
  6293 ;; Parameters:    Size  Location     Type
  6294 ;;		None
  6295 ;; Auto vars:     Size  Location     Type
  6296 ;;		None
  6297 ;; Return value:  Size  Location     Type
  6298 ;;                  1    wreg      void 
  6299 ;; Registers used:
  6300 ;;		None
  6301 ;; Tracked objects:
  6302 ;;		On entry : 0/0
  6303 ;;		On exit  : 0/0
  6304 ;;		Unchanged: 0/0
  6305 ;; Data sizes:     COMMON   BANK0   BANK1   BANK3   BANK2
  6306 ;;      Params:         0       0       0       0       0
  6307 ;;      Locals:         0       0       0       0       0
  6308 ;;      Temps:          0       0       0       0       0
  6309 ;;      Totals:         0       0       0       0       0
  6310 ;;Total ram usage:        0 bytes
  6311 ;; Hardware stack levels used: 1
  6312 ;; Hardware stack levels required when called: 1
  6313 ;; This function calls:
  6314 ;;		Nothing
  6315 ;; This function is called by:
  6316 ;;		_init_config
  6317 ;; This function uses a non-reentrant model
  6318 ;;
  6319                           
  6320     113E                     _init_adc:	
  6321                           ;psect for function _init_adc
  6322                           
  6323     113E                     l3872:	
  6324                           ;incstack = 0
  6325                           ; Regs used in _init_adc: []
  6326                           
  6327                           
  6328                           ;adc.c: 6:     ADFM = 1;
  6329     113E  1683               	bsf	3,5	;RP0=1, select bank1
  6330     113F  1303               	bcf	3,6	;RP1=0, select bank1
  6331     1140  179F               	bsf	31,7	;volatile
  6332                           
  6333                           ;adc.c: 9:     ADON = 1;
  6334     1141  1283               	bcf	3,5	;RP0=0, select bank0
  6335     1142  1303               	bcf	3,6	;RP1=0, select bank0
  6336     1143  141F               	bsf	31,0	;volatile
  6337     1144                     l122:
  6338     1144  0008               	return
  6339     1145                     __end_of_init_adc:
  6340                           
  6341                           	psect	text20
  6342     0A66                     __ptext20:	
  6343 ;; *************** function _download_log *****************
  6344 ;; Defined at:
  6345 ;;		line 441 in file "car_black_box.c"
  6346 ;; Parameters:    Size  Location     Type
  6347 ;;		None
  6348 ;; Auto vars:     Size  Location     Type
  6349 ;;  i               2   16[BANK0 ] int 
  6350 ;;  log            11    0[BANK0 ] unsigned char [11]
  6351 ;;  index           2   14[BANK0 ] int 
  6352 ;;  position        2   12[BANK0 ] int 
  6353 ;;  add             1   11[BANK0 ] unsigned char 
  6354 ;; Return value:  Size  Location     Type
  6355 ;;                  1    wreg      void 
  6356 ;; Registers used:
  6357 ;;		wreg, fsr0l, fsr0h, status,2, status,0, btemp+1, pclath, cstack
  6358 ;; Tracked objects:
  6359 ;;		On entry : 0/0
  6360 ;;		On exit  : 0/0
  6361 ;;		Unchanged: 0/0
  6362 ;; Data sizes:     COMMON   BANK0   BANK1   BANK3   BANK2
  6363 ;;      Params:         0       0       0       0       0
  6364 ;;      Locals:         0      18       0       0       0
  6365 ;;      Temps:          1       0       0       0       0
  6366 ;;      Totals:         1      18       0       0       0
  6367 ;;Total ram usage:       19 bytes
  6368 ;; Hardware stack levels used: 1
  6369 ;; Hardware stack levels required when called: 5
  6370 ;; This function calls:
  6371 ;;		___bmul
  6372 ;;		_eeprom_at24c04_random_read
  6373 ;;		_putchar
  6374 ;;		_puts
  6375 ;; This function is called by:
  6376 ;;		_main
  6377 ;; This function uses a non-reentrant model
  6378 ;;
  6379                           
  6380     0A66                     _download_log:	
  6381                           ;psect for function _download_log
  6382                           
  6383     0A66                     l4208:	
  6384                           ;incstack = 0
  6385                           ; Regs used in _download_log: [wreg-fsr0h+status,2+status,0+btemp+1+pclath+cstack]
  6386                           
  6387                           
  6388                           ;car_black_box.c: 443:     int index = -1;
  6389     0A66  30FF               	movlw	255
  6390     0A67  1283               	bcf	3,5	;RP0=0, select bank0
  6391     0A68  1303               	bcf	3,6	;RP1=0, select bank0
  6392     0A69  00D3               	movwf	download_log@index
  6393     0A6A  30FF               	movlw	255
  6394     0A6B  00D4               	movwf	download_log@index+1
  6395     0A6C                     l4210:
  6396                           
  6397                           ;car_black_box.c: 444:     char log[11];;car_black_box.c: 445:     log[10] = 0;
  6398     0A6C  01CF               	clrf	download_log@log+10
  6399     0A6D                     l4212:
  6400     0A6D                     l4214:
  6401                           
  6402                           ;car_black_box.c: 447:     unsigned char add;;car_black_box.c: 449:     if (event_count 
      +                          == -1)
  6403     0A6D  0A66               	incf	_event_count,w
  6404     0A6E  1D03               	skipz
  6405     0A6F  2A74               	goto	u4151
  6406     0A70  0A67               	incf	_event_count+1,w
  6407     0A71  1D03               	btfss	3,2
  6408     0A72  2A74               	goto	u4151
  6409     0A73  2A75               	goto	u4150
  6410     0A74                     u4151:
  6411     0A74  2A7F               	goto	l4218
  6412     0A75                     u4150:
  6413     0A75                     l4216:
  6414                           
  6415                           ;car_black_box.c: 450:     {;car_black_box.c: 451:         puts("No logs available");
  6416     0A75  3036               	movlw	low (STR_34| (0+32768))
  6417     0A76  00F3               	movwf	puts@s
  6418     0A77  3087               	movlw	high (STR_34| (0+32768))
  6419     0A78  00F4               	movwf	puts@s+1
  6420     0A79  160A  118A  22D3  120A  158A  	fcall	_puts
  6421                           
  6422                           ;car_black_box.c: 452:     }
  6423     0A7E  2B81               	goto	l374
  6424     0A7F                     l4218:
  6425                           
  6426                           ;car_black_box.c: 454:     {;car_black_box.c: 455:         puts("Logs :");
  6427     0A7F  30BF               	movlw	low (STR_35| (0+32768))
  6428     0A80  00F3               	movwf	puts@s
  6429     0A81  3088               	movlw	high (STR_35| (0+32768))
  6430     0A82  00F4               	movwf	puts@s+1
  6431     0A83  160A  118A  22D3  120A  158A  	fcall	_puts
  6432     0A88                     l4220:
  6433                           
  6434                           ;car_black_box.c: 456:         putchar('\n');
  6435     0A88  300A               	movlw	10
  6436     0A89  160A  118A  2175  120A  158A  	fcall	_putchar
  6437     0A8E                     l4222:
  6438                           
  6439                           ;car_black_box.c: 457:         puts("#     Time        Event       Speed");
  6440     0A8E  3000               	movlw	low (STR_36| (0+32768))
  6441     0A8F  00F3               	movwf	puts@s
  6442     0A90  3087               	movlw	high (STR_36| (0+32768))
  6443     0A91  00F4               	movwf	puts@s+1
  6444     0A92  160A  118A  22D3  120A  158A  	fcall	_puts
  6445                           
  6446                           ;car_black_box.c: 458:         putchar('\n');
  6447     0A97  300A               	movlw	10
  6448     0A98  160A  118A  2175  120A  158A  	fcall	_putchar
  6449                           
  6450                           ;car_black_box.c: 459:         putchar('\r');
  6451     0A9D  300D               	movlw	13
  6452     0A9E  160A  118A  2175  120A  158A  	fcall	_putchar
  6453                           
  6454                           ;car_black_box.c: 461:         while (index < event_count)
  6455     0AA3  2B71               	goto	l4274
  6456     0AA4                     l4224:
  6457                           
  6458                           ;car_black_box.c: 462:         {;car_black_box.c: 463:             position = index + 1;
  6459     0AA4  1283               	bcf	3,5	;RP0=0, select bank0
  6460     0AA5  1303               	bcf	3,6	;RP1=0, select bank0
  6461     0AA6  0853               	movf	download_log@index,w
  6462     0AA7  3E01               	addlw	1
  6463     0AA8  00D1               	movwf	download_log@position
  6464     0AA9  0854               	movf	download_log@index+1,w
  6465     0AAA  1803               	skipnc
  6466     0AAB  3E01               	addlw	1
  6467     0AAC  3E00               	addlw	0
  6468     0AAD  00D2               	movwf	download_log@position+1
  6469     0AAE                     l4226:
  6470                           
  6471                           ;car_black_box.c: 464:             index++;
  6472     0AAE  3001               	movlw	1
  6473     0AAF  07D3               	addwf	download_log@index,f
  6474     0AB0  1803               	skipnc
  6475     0AB1  0AD4               	incf	download_log@index+1,f
  6476     0AB2  3000               	movlw	0
  6477     0AB3  07D4               	addwf	download_log@index+1,f
  6478     0AB4                     l4228:
  6479                           
  6480                           ;car_black_box.c: 466:             for (int i = 0; i < 10; i++)
  6481     0AB4  01D5               	clrf	download_log@i
  6482     0AB5  01D6               	clrf	download_log@i+1
  6483     0AB6                     l4234:
  6484                           
  6485                           ;car_black_box.c: 467:             {;car_black_box.c: 469:                 add = positio
      +                          n * 10 + 5 + i;
  6486     0AB6  300A               	movlw	10
  6487     0AB7  00F2               	movwf	___bmul@multiplicand
  6488     0AB8  1283               	bcf	3,5	;RP0=0, select bank0
  6489     0AB9  1303               	bcf	3,6	;RP1=0, select bank0
  6490     0ABA  0851               	movf	download_log@position,w
  6491     0ABB  160A  118A  21DA  120A  158A  	fcall	___bmul
  6492     0AC0  1283               	bcf	3,5	;RP0=0, select bank0
  6493     0AC1  1303               	bcf	3,6	;RP1=0, select bank0
  6494     0AC2  0755               	addwf	download_log@i,w
  6495     0AC3  3E05               	addlw	5
  6496     0AC4  00D0               	movwf	download_log@add
  6497     0AC5                     l4236:
  6498                           
  6499                           ;car_black_box.c: 470:                 log[i] = eeprom_at24c04_random_read(add);
  6500     0AC5  0855               	movf	download_log@i,w
  6501     0AC6  3E45               	addlw	(low (download_log@log| 0))& (0+255)
  6502     0AC7  0084               	movwf	4
  6503     0AC8  0850               	movf	download_log@add,w
  6504     0AC9  160A  118A  237A  120A  158A  	fcall	_eeprom_at24c04_random_read
  6505     0ACE  1383               	bcf	3,7	;select IRP bank0
  6506     0ACF  0080               	movwf	0
  6507     0AD0                     l4238:
  6508                           
  6509                           ;car_black_box.c: 471:             }
  6510     0AD0  3001               	movlw	1
  6511     0AD1  1283               	bcf	3,5	;RP0=0, select bank0
  6512     0AD2  1303               	bcf	3,6	;RP1=0, select bank0
  6513     0AD3  07D5               	addwf	download_log@i,f
  6514     0AD4  1803               	skipnc
  6515     0AD5  0AD6               	incf	download_log@i+1,f
  6516     0AD6  3000               	movlw	0
  6517     0AD7  07D6               	addwf	download_log@i+1,f
  6518     0AD8                     l4240:
  6519     0AD8  0856               	movf	download_log@i+1,w
  6520     0AD9  3A80               	xorlw	128
  6521     0ADA  00FF               	movwf	btemp+1
  6522     0ADB  3080               	movlw	128
  6523     0ADC  027F               	subwf	btemp+1,w
  6524     0ADD  1D03               	skipz
  6525     0ADE  2AE1               	goto	u4165
  6526     0ADF  300A               	movlw	10
  6527     0AE0  0255               	subwf	download_log@i,w
  6528     0AE1                     u4165:
  6529     0AE1  1C03               	skipc
  6530     0AE2  2AE4               	goto	u4161
  6531     0AE3  2AE5               	goto	u4160
  6532     0AE4                     u4161:
  6533     0AE4  2AB6               	goto	l4234
  6534     0AE5                     u4160:
  6535     0AE5                     l4242:
  6536                           
  6537                           ;car_black_box.c: 476:             putchar(index + '0');
  6538     0AE5  1283               	bcf	3,5	;RP0=0, select bank0
  6539     0AE6  1303               	bcf	3,6	;RP1=0, select bank0
  6540     0AE7  0853               	movf	download_log@index,w
  6541     0AE8  3E30               	addlw	48
  6542     0AE9  160A  118A  2175  120A  158A  	fcall	_putchar
  6543     0AEE                     l4244:
  6544                           
  6545                           ;car_black_box.c: 477:             puts("   ");
  6546     0AEE  3032               	movlw	low ((STR_43+14)| (0+32768))
  6547     0AEF  00F3               	movwf	puts@s
  6548     0AF0  3087               	movlw	high ((STR_43+14)| (0+32768))
  6549     0AF1  00F4               	movwf	puts@s+1
  6550     0AF2  160A  118A  22D3  120A  158A  	fcall	_puts
  6551     0AF7                     l4246:
  6552                           
  6553                           ;car_black_box.c: 480:             putchar(log[0]);
  6554     0AF7  1283               	bcf	3,5	;RP0=0, select bank0
  6555     0AF8  1303               	bcf	3,6	;RP1=0, select bank0
  6556     0AF9  0845               	movf	download_log@log,w
  6557     0AFA  160A  118A  2175  120A  158A  	fcall	_putchar
  6558     0AFF                     l4248:
  6559                           
  6560                           ;car_black_box.c: 481:             putchar(log[1]);
  6561     0AFF  1283               	bcf	3,5	;RP0=0, select bank0
  6562     0B00  1303               	bcf	3,6	;RP1=0, select bank0
  6563     0B01  0846               	movf	download_log@log+1,w
  6564     0B02  160A  118A  2175  120A  158A  	fcall	_putchar
  6565     0B07                     l4250:
  6566                           
  6567                           ;car_black_box.c: 482:             putchar(':');
  6568     0B07  303A               	movlw	58
  6569     0B08  160A  118A  2175  120A  158A  	fcall	_putchar
  6570     0B0D                     l4252:
  6571                           
  6572                           ;car_black_box.c: 485:             putchar(log[2]);
  6573     0B0D  1283               	bcf	3,5	;RP0=0, select bank0
  6574     0B0E  1303               	bcf	3,6	;RP1=0, select bank0
  6575     0B0F  0847               	movf	download_log@log+2,w
  6576     0B10  160A  118A  2175  120A  158A  	fcall	_putchar
  6577     0B15                     l4254:
  6578                           
  6579                           ;car_black_box.c: 486:             putchar(log[3]);
  6580     0B15  1283               	bcf	3,5	;RP0=0, select bank0
  6581     0B16  1303               	bcf	3,6	;RP1=0, select bank0
  6582     0B17  0848               	movf	download_log@log+3,w
  6583     0B18  160A  118A  2175  120A  158A  	fcall	_putchar
  6584     0B1D                     l4256:
  6585                           
  6586                           ;car_black_box.c: 487:             putchar(':');
  6587     0B1D  303A               	movlw	58
  6588     0B1E  160A  118A  2175  120A  158A  	fcall	_putchar
  6589     0B23                     l4258:
  6590                           
  6591                           ;car_black_box.c: 490:             putchar(log[4]);
  6592     0B23  1283               	bcf	3,5	;RP0=0, select bank0
  6593     0B24  1303               	bcf	3,6	;RP1=0, select bank0
  6594     0B25  0849               	movf	download_log@log+4,w
  6595     0B26  160A  118A  2175  120A  158A  	fcall	_putchar
  6596     0B2B                     l4260:
  6597                           
  6598                           ;car_black_box.c: 491:             putchar(log[5]);
  6599     0B2B  1283               	bcf	3,5	;RP0=0, select bank0
  6600     0B2C  1303               	bcf	3,6	;RP1=0, select bank0
  6601     0B2D  084A               	movf	download_log@log+5,w
  6602     0B2E  160A  118A  2175  120A  158A  	fcall	_putchar
  6603     0B33                     l4262:
  6604                           
  6605                           ;car_black_box.c: 492:             puts("      ");
  6606     0B33  302F               	movlw	low ((STR_43+11)| (0+32768))
  6607     0B34  00F3               	movwf	puts@s
  6608     0B35  3087               	movlw	high ((STR_43+11)| (0+32768))
  6609     0B36  00F4               	movwf	puts@s+1
  6610     0B37  160A  118A  22D3  120A  158A  	fcall	_puts
  6611                           
  6612                           ;car_black_box.c: 495:             putchar(log[6]);
  6613     0B3C  1283               	bcf	3,5	;RP0=0, select bank0
  6614     0B3D  1303               	bcf	3,6	;RP1=0, select bank0
  6615     0B3E  084B               	movf	download_log@log+6,w
  6616     0B3F  160A  118A  2175  120A  158A  	fcall	_putchar
  6617                           
  6618                           ;car_black_box.c: 496:             putchar(log[7]);
  6619     0B44  1283               	bcf	3,5	;RP0=0, select bank0
  6620     0B45  1303               	bcf	3,6	;RP1=0, select bank0
  6621     0B46  084C               	movf	download_log@log+7,w
  6622     0B47  160A  118A  2175  120A  158A  	fcall	_putchar
  6623     0B4C                     l4264:
  6624                           
  6625                           ;car_black_box.c: 497:             puts("            ");
  6626     0B4C  3029               	movlw	low ((STR_43+5)| (0+32768))
  6627     0B4D  00F3               	movwf	puts@s
  6628     0B4E  3087               	movlw	high ((STR_43+5)| (0+32768))
  6629     0B4F  00F4               	movwf	puts@s+1
  6630     0B50  160A  118A  22D3  120A  158A  	fcall	_puts
  6631     0B55                     l4266:
  6632                           
  6633                           ;car_black_box.c: 500:             putchar(log[8]);
  6634     0B55  1283               	bcf	3,5	;RP0=0, select bank0
  6635     0B56  1303               	bcf	3,6	;RP1=0, select bank0
  6636     0B57  084D               	movf	download_log@log+8,w
  6637     0B58  160A  118A  2175  120A  158A  	fcall	_putchar
  6638     0B5D                     l4268:
  6639                           
  6640                           ;car_black_box.c: 501:             putchar(log[9]);
  6641     0B5D  1283               	bcf	3,5	;RP0=0, select bank0
  6642     0B5E  1303               	bcf	3,6	;RP1=0, select bank0
  6643     0B5F  084E               	movf	download_log@log+9,w
  6644     0B60  160A  118A  2175  120A  158A  	fcall	_putchar
  6645     0B65                     l4270:
  6646                           
  6647                           ;car_black_box.c: 502:             putchar('\n');
  6648     0B65  300A               	movlw	10
  6649     0B66  160A  118A  2175  120A  158A  	fcall	_putchar
  6650     0B6B                     l4272:
  6651                           
  6652                           ;car_black_box.c: 503:             putchar('\r');
  6653     0B6B  300D               	movlw	13
  6654     0B6C  160A  118A  2175  120A  158A  	fcall	_putchar
  6655     0B71                     l4274:
  6656                           
  6657                           ;car_black_box.c: 461:         while (index < event_count)
  6658     0B71  1283               	bcf	3,5	;RP0=0, select bank0
  6659     0B72  1303               	bcf	3,6	;RP1=0, select bank0
  6660     0B73  0854               	movf	download_log@index+1,w
  6661     0B74  3A80               	xorlw	128
  6662     0B75  00F6               	movwf	??_download_log
  6663     0B76  0867               	movf	_event_count+1,w
  6664     0B77  3A80               	xorlw	128
  6665     0B78  0276               	subwf	??_download_log,w
  6666     0B79  1D03               	skipz
  6667     0B7A  2B7D               	goto	u4175
  6668     0B7B  0866               	movf	_event_count,w
  6669     0B7C  0253               	subwf	download_log@index,w
  6670     0B7D                     u4175:
  6671     0B7D  1C03               	skipc
  6672     0B7E  2B80               	goto	u4171
  6673     0B7F  2B81               	goto	u4170
  6674     0B80                     u4171:
  6675     0B80  2AA4               	goto	l4224
  6676     0B81                     u4170:
  6677     0B81                     l374:
  6678     0B81  0008               	return
  6679     0B82                     __end_of_download_log:
  6680                           
  6681                           	psect	text21
  6682     12D3                     __ptext21:	
  6683 ;; *************** function _puts *****************
  6684 ;; Defined at:
  6685 ;;		line 46 in file "uart.c"
  6686 ;; Parameters:    Size  Location     Type
  6687 ;;  s               2    3[COMMON] PTR const unsigned char 
  6688 ;;		 -> STR_39(13), STR_38(7), STR_37(4), STR_36(36), 
  6689 ;;		 -> STR_35(7), STR_34(18), 
  6690 ;; Auto vars:     Size  Location     Type
  6691 ;;		None
  6692 ;; Return value:  Size  Location     Type
  6693 ;;                  1    wreg      void 
  6694 ;; Registers used:
  6695 ;;		wreg, fsr0l, fsr0h, status,2, status,0, btemp+1, pclath, cstack
  6696 ;; Tracked objects:
  6697 ;;		On entry : 0/0
  6698 ;;		On exit  : 0/0
  6699 ;;		Unchanged: 0/0
  6700 ;; Data sizes:     COMMON   BANK0   BANK1   BANK3   BANK2
  6701 ;;      Params:         2       0       0       0       0
  6702 ;;      Locals:         0       0       0       0       0
  6703 ;;      Temps:          0       0       0       0       0
  6704 ;;      Totals:         2       0       0       0       0
  6705 ;;Total ram usage:        2 bytes
  6706 ;; Hardware stack levels used: 1
  6707 ;; Hardware stack levels required when called: 2
  6708 ;; This function calls:
  6709 ;;		_putchar
  6710 ;; This function is called by:
  6711 ;;		_download_log
  6712 ;; This function uses a non-reentrant model
  6713 ;;
  6714                           
  6715     12D3                     _puts:	
  6716                           ;psect for function _puts
  6717                           
  6718     12D3                     l3962:	
  6719                           ;incstack = 0
  6720                           ; Regs used in _puts: [wreg-fsr0h+status,2+status,0+btemp+1+pclath+cstack]
  6721                           
  6722                           
  6723                           ;uart.c: 46: void puts(const char *s);uart.c: 47: {;uart.c: 48:     while (*s)
  6724     12D3  2AE8               	goto	l3968
  6725     12D4                     l3964:
  6726                           
  6727                           ;uart.c: 49:     {;uart.c: 50:         putchar(*s++);
  6728     12D4  0874               	movf	puts@s+1,w
  6729     12D5  00FF               	movwf	btemp+1
  6730     12D6  0873               	movf	puts@s,w
  6731     12D7  0084               	movwf	4
  6732     12D8  160A  118A  2000  160A  118A  	fcall	stringtab
  6733     12DD  160A  118A  2175  160A  118A  	fcall	_putchar
  6734     12E2                     l3966:
  6735     12E2  3001               	movlw	1
  6736     12E3  07F3               	addwf	puts@s,f
  6737     12E4  1803               	skipnc
  6738     12E5  0AF4               	incf	puts@s+1,f
  6739     12E6  3000               	movlw	0
  6740     12E7  07F4               	addwf	puts@s+1,f
  6741     12E8                     l3968:
  6742                           
  6743                           ;uart.c: 48:     while (*s)
  6744     12E8  0874               	movf	puts@s+1,w
  6745     12E9  1283               	bcf	3,5	;RP0=0, select bank0
  6746     12EA  1303               	bcf	3,6	;RP1=0, select bank0
  6747     12EB  00FF               	movwf	btemp+1
  6748     12EC  0873               	movf	puts@s,w
  6749     12ED  0084               	movwf	4
  6750     12EE  160A  118A  2000  160A  118A  	fcall	stringtab
  6751     12F3  3A00               	xorlw	0
  6752     12F4  1D03               	skipz
  6753     12F5  2AF7               	goto	u3631
  6754     12F6  2AF8               	goto	u3630
  6755     12F7                     u3631:
  6756     12F7  2AD4               	goto	l3964
  6757     12F8                     u3630:
  6758     12F8                     l551:
  6759     12F8  0008               	return
  6760     12F9                     __end_of_puts:
  6761                           
  6762                           	psect	text22
  6763     1175                     __ptext22:	
  6764 ;; *************** function _putchar *****************
  6765 ;; Defined at:
  6766 ;;		line 31 in file "uart.c"
  6767 ;; Parameters:    Size  Location     Type
  6768 ;;  data            1    wreg     unsigned char 
  6769 ;; Auto vars:     Size  Location     Type
  6770 ;;  data            1    2[COMMON] unsigned char 
  6771 ;; Return value:  Size  Location     Type
  6772 ;;                  1    wreg      void 
  6773 ;; Registers used:
  6774 ;;		wreg
  6775 ;; Tracked objects:
  6776 ;;		On entry : 0/0
  6777 ;;		On exit  : 0/0
  6778 ;;		Unchanged: 0/0
  6779 ;; Data sizes:     COMMON   BANK0   BANK1   BANK3   BANK2
  6780 ;;      Params:         0       0       0       0       0
  6781 ;;      Locals:         1       0       0       0       0
  6782 ;;      Temps:          0       0       0       0       0
  6783 ;;      Totals:         1       0       0       0       0
  6784 ;;Total ram usage:        1 bytes
  6785 ;; Hardware stack levels used: 1
  6786 ;; Hardware stack levels required when called: 1
  6787 ;; This function calls:
  6788 ;;		Nothing
  6789 ;; This function is called by:
  6790 ;;		_download_log
  6791 ;;		_puts
  6792 ;; This function uses a non-reentrant model
  6793 ;;
  6794                           
  6795     1175                     _putchar:	
  6796                           ;psect for function _putchar
  6797                           
  6798                           
  6799                           ;incstack = 0
  6800                           ; Regs used in _putchar: [wreg]
  6801                           ;putchar@data stored from wreg
  6802     1175  00F2               	movwf	putchar@data
  6803     1176                     l3804:
  6804                           
  6805                           ;uart.c: 31: void putchar(unsigned char data);uart.c: 32: {;uart.c: 34:     TXREG = data
      +                          ;
  6806     1176  0872               	movf	putchar@data,w
  6807     1177  1283               	bcf	3,5	;RP0=0, select bank0
  6808     1178  1303               	bcf	3,6	;RP1=0, select bank0
  6809     1179  0099               	movwf	25	;volatile
  6810     117A                     l543:	
  6811                           ;uart.c: 40:     } while (TXIF != 1);
  6812                           
  6813     117A  1E0C               	btfss	12,4	;volatile
  6814     117B  297D               	goto	u3401
  6815     117C  297E               	goto	u3400
  6816     117D                     u3401:
  6817     117D  297A               	goto	l543
  6818     117E                     u3400:
  6819     117E                     l544:
  6820                           
  6821                           ;uart.c: 43:     TXIF = 0;
  6822     117E  120C               	bcf	12,4	;volatile
  6823     117F                     l545:
  6824     117F  0008               	return
  6825     1180                     __end_of_putchar:
  6826                           
  6827                           	psect	text23
  6828     137A                     __ptext23:	
  6829 ;; *************** function _eeprom_at24c04_random_read *****************
  6830 ;; Defined at:
  6831 ;;		line 5 in file "at24c04.c"
  6832 ;; Parameters:    Size  Location     Type
  6833 ;;  memory_loc      1    wreg     unsigned char 
  6834 ;; Auto vars:     Size  Location     Type
  6835 ;;  memory_loc      1    4[COMMON] unsigned char 
  6836 ;;  received_dat    1    5[COMMON] unsigned char 
  6837 ;; Return value:  Size  Location     Type
  6838 ;;                  1    wreg      unsigned char 
  6839 ;; Registers used:
  6840 ;;		wreg, status,2, status,0, pclath, cstack
  6841 ;; Tracked objects:
  6842 ;;		On entry : 0/0
  6843 ;;		On exit  : 0/0
  6844 ;;		Unchanged: 0/0
  6845 ;; Data sizes:     COMMON   BANK0   BANK1   BANK3   BANK2
  6846 ;;      Params:         0       0       0       0       0
  6847 ;;      Locals:         2       0       0       0       0
  6848 ;;      Temps:          0       0       0       0       0
  6849 ;;      Totals:         2       0       0       0       0
  6850 ;;Total ram usage:        2 bytes
  6851 ;; Hardware stack levels used: 1
  6852 ;; Hardware stack levels required when called: 4
  6853 ;; This function calls:
  6854 ;;		_i2c_read
  6855 ;;		_i2c_rep_start
  6856 ;;		_i2c_start
  6857 ;;		_i2c_stop
  6858 ;;		_i2c_write
  6859 ;; This function is called by:
  6860 ;;		_login
  6861 ;;		_view_log
  6862 ;;		_download_log
  6863 ;; This function uses a non-reentrant model
  6864 ;;
  6865                           
  6866     137A                     _eeprom_at24c04_random_read:	
  6867                           ;psect for function _eeprom_at24c04_random_read
  6868                           
  6869                           
  6870                           ;incstack = 0
  6871                           ; Regs used in _eeprom_at24c04_random_read: [wreg+status,2+status,0+pclath+cstack]
  6872                           ;eeprom_at24c04_random_read@memory_loc stored from wreg
  6873     137A  00F4               	movwf	eeprom_at24c04_random_read@memory_loc
  6874     137B                     l3920:
  6875     137B                     l3922:
  6876                           
  6877                           ;at24c04.c: 9:     i2c_start();
  6878     137B  160A  118A  214D  160A  118A  	fcall	_i2c_start
  6879     1380                     l3924:
  6880                           
  6881                           ;at24c04.c: 10:     i2c_write(0xA0);
  6882     1380  30A0               	movlw	160
  6883     1381  160A  118A  215F  160A  118A  	fcall	_i2c_write
  6884     1386                     l3926:
  6885                           
  6886                           ;at24c04.c: 11:     i2c_write(memory_loc);
  6887     1386  0874               	movf	eeprom_at24c04_random_read@memory_loc,w
  6888     1387  160A  118A  215F  160A  118A  	fcall	_i2c_write
  6889     138C                     l3928:
  6890                           
  6891                           ;at24c04.c: 12:     i2c_rep_start();
  6892     138C  160A  118A  216A  160A  118A  	fcall	_i2c_rep_start
  6893     1391                     l3930:
  6894                           
  6895                           ;at24c04.c: 13:     i2c_write(0xA1);
  6896     1391  30A1               	movlw	161
  6897     1392  160A  118A  215F  160A  118A  	fcall	_i2c_write
  6898     1397                     l3932:
  6899                           
  6900                           ;at24c04.c: 14:     received_data = i2c_read(0);
  6901     1397  3000               	movlw	0
  6902     1398  160A  118A  226C  160A  118A  	fcall	_i2c_read
  6903     139D  00F5               	movwf	eeprom_at24c04_random_read@received_data
  6904     139E                     l3934:
  6905                           
  6906                           ;at24c04.c: 15:     i2c_stop();
  6907     139E  160A  118A  2156  160A  118A  	fcall	_i2c_stop
  6908     13A3                     l3936:
  6909                           
  6910                           ;at24c04.c: 17:     return received_data;
  6911     13A3  0875               	movf	eeprom_at24c04_random_read@received_data,w
  6912     13A4                     l477:
  6913     13A4  0008               	return
  6914     13A5                     __end_of_eeprom_at24c04_random_read:
  6915                           
  6916                           	psect	text24
  6917     11DA                     __ptext24:	
  6918 ;; *************** function ___bmul *****************
  6919 ;; Defined at:
  6920 ;;		line 4 in file "C:\Program Files\Microchip\xc8\v2.50\pic\sources\c99\common\Umul8.c"
  6921 ;; Parameters:    Size  Location     Type
  6922 ;;  multiplier      1    wreg     unsigned char 
  6923 ;;  multiplicand    1    2[COMMON] unsigned char 
  6924 ;; Auto vars:     Size  Location     Type
  6925 ;;  multiplier      1    4[COMMON] unsigned char 
  6926 ;;  product         1    3[COMMON] unsigned char 
  6927 ;; Return value:  Size  Location     Type
  6928 ;;                  1    wreg      unsigned char 
  6929 ;; Registers used:
  6930 ;;		wreg, status,2, status,0
  6931 ;; Tracked objects:
  6932 ;;		On entry : 0/0
  6933 ;;		On exit  : 0/0
  6934 ;;		Unchanged: 0/0
  6935 ;; Data sizes:     COMMON   BANK0   BANK1   BANK3   BANK2
  6936 ;;      Params:         1       0       0       0       0
  6937 ;;      Locals:         2       0       0       0       0
  6938 ;;      Temps:          0       0       0       0       0
  6939 ;;      Totals:         3       0       0       0       0
  6940 ;;Total ram usage:        3 bytes
  6941 ;; Hardware stack levels used: 1
  6942 ;; Hardware stack levels required when called: 1
  6943 ;; This function calls:
  6944 ;;		Nothing
  6945 ;; This function is called by:
  6946 ;;		_log_event
  6947 ;;		_view_log
  6948 ;;		_download_log
  6949 ;; This function uses a non-reentrant model
  6950 ;;
  6951                           
  6952     11DA                     ___bmul:	
  6953                           ;psect for function ___bmul
  6954                           
  6955                           
  6956                           ;incstack = 0
  6957                           ; Regs used in ___bmul: [wreg+status,2+status,0]
  6958                           ;___bmul@multiplier stored from wreg
  6959     11DA  00F4               	movwf	___bmul@multiplier
  6960     11DB                     l3806:
  6961     11DB  01F3               	clrf	___bmul@product
  6962     11DC                     l3808:
  6963     11DC  1C74               	btfss	___bmul@multiplier,0
  6964     11DD  29DF               	goto	u3411
  6965     11DE  29E0               	goto	u3410
  6966     11DF                     u3411:
  6967     11DF  29E2               	goto	l3812
  6968     11E0                     u3410:
  6969     11E0                     l3810:
  6970     11E0  0872               	movf	___bmul@multiplicand,w
  6971     11E1  07F3               	addwf	___bmul@product,f
  6972     11E2                     l3812:
  6973     11E2  1003               	clrc
  6974     11E3  0DF2               	rlf	___bmul@multiplicand,f
  6975     11E4                     l3814:
  6976     11E4  1003               	clrc
  6977     11E5  0CF4               	rrf	___bmul@multiplier,f
  6978     11E6  0874               	movf	___bmul@multiplier,w
  6979     11E7  1D03               	btfss	3,2
  6980     11E8  29EA               	goto	u3421
  6981     11E9  29EB               	goto	u3420
  6982     11EA                     u3421:
  6983     11EA  29DC               	goto	l3808
  6984     11EB                     u3420:
  6985     11EB                     l3816:
  6986     11EB  0873               	movf	___bmul@product,w
  6987     11EC                     l663:
  6988     11EC  0008               	return
  6989     11ED                     __end_of___bmul:
  6990                           
  6991                           	psect	text25
  6992     1641                     __ptext25:	
  6993 ;; *************** function _display_dashboard *****************
  6994 ;; Defined at:
  6995 ;;		line 80 in file "car_black_box.c"
  6996 ;; Parameters:    Size  Location     Type
  6997 ;;  event           1   10[BANK0 ] PTR unsigned char 
  6998 ;;		 -> main@event(3), 
  6999 ;;  speed           1   11[BANK0 ] unsigned char 
  7000 ;; Auto vars:     Size  Location     Type
  7001 ;;		None
  7002 ;; Return value:  Size  Location     Type
  7003 ;;                  1    wreg      void 
  7004 ;; Registers used:
  7005 ;;		wreg, fsr0l, fsr0h, status,2, status,0, btemp+1, pclath, cstack
  7006 ;; Tracked objects:
  7007 ;;		On entry : 0/0
  7008 ;;		On exit  : 0/0
  7009 ;;		Unchanged: 0/0
  7010 ;; Data sizes:     COMMON   BANK0   BANK1   BANK3   BANK2
  7011 ;;      Params:         0       2       0       0       0
  7012 ;;      Locals:         0       0       0       0       0
  7013 ;;      Temps:          0       2       0       0       0
  7014 ;;      Totals:         0       4       0       0       0
  7015 ;;Total ram usage:        4 bytes
  7016 ;; Hardware stack levels used: 1
  7017 ;; Hardware stack levels required when called: 7
  7018 ;; This function calls:
  7019 ;;		___awdiv
  7020 ;;		___awmod
  7021 ;;		_clcd_print
  7022 ;;		_clcd_putch
  7023 ;;		_display_time
  7024 ;; This function is called by:
  7025 ;;		_main
  7026 ;; This function uses a non-reentrant model
  7027 ;;
  7028                           
  7029     1641                     _display_dashboard:	
  7030                           ;psect for function _display_dashboard
  7031                           
  7032     1641                     l4276:	
  7033                           ;incstack = 0
  7034                           ; Regs used in _display_dashboard: [wreg-fsr0h+status,2+status,0+btemp+1+pclath+cstack]
  7035                           
  7036                           
  7037                           ;car_black_box.c: 80: void display_dashboard(unsigned char event[], unsigned char speed)
      +                          ;car_black_box.c: 81: {;car_black_box.c: 82:     clcd_print("  TIME     E  SP", (0x80 + 
      +                          0));
  7038     1641  307B               	movlw	low (STR_22| (0+32768))
  7039     1642  00F6               	movwf	clcd_print@str
  7040     1643  3087               	movlw	high (STR_22| (0+32768))
  7041     1644  00F7               	movwf	clcd_print@str+1
  7042     1645  3080               	movlw	128
  7043     1646  00F8               	movwf	clcd_print@addr
  7044     1647  160A  118A  23A5  160A  118A  	fcall	_clcd_print
  7045     164C                     l4278:
  7046                           
  7047                           ;car_black_box.c: 85:     display_time();
  7048     164C  120A  158A  20F3  160A  118A  	fcall	_display_time
  7049     1651                     l4280:
  7050                           
  7051                           ;car_black_box.c: 88:     clcd_print(event, (0xC0 + 11));
  7052     1651  1283               	bcf	3,5	;RP0=0, select bank0
  7053     1652  1303               	bcf	3,6	;RP1=0, select bank0
  7054     1653  084F               	movf	display_dashboard@event,w
  7055     1654  00F6               	movwf	clcd_print@str
  7056     1655  3000               	movlw	0
  7057     1656  00F7               	movwf	clcd_print@str+1
  7058     1657  30CB               	movlw	203
  7059     1658  00F8               	movwf	clcd_print@addr
  7060     1659  160A  118A  23A5  160A  118A  	fcall	_clcd_print
  7061                           
  7062                           ;car_black_box.c: 91:     clcd_putch(speed / 10 + '0', (0xC0 + 14));
  7063     165E  30CE               	movlw	206
  7064     165F  1283               	bcf	3,5	;RP0=0, select bank0
  7065     1660  1303               	bcf	3,6	;RP1=0, select bank0
  7066     1661  00CD               	movwf	clcd_putch@addr
  7067     1662  300A               	movlw	10
  7068     1663  00F2               	movwf	___awdiv@divisor
  7069     1664  3000               	movlw	0
  7070     1665  00F3               	movwf	___awdiv@divisor+1
  7071     1666  0850               	movf	display_dashboard@speed,w
  7072     1667  00D1               	movwf	??_display_dashboard
  7073     1668  01D2               	clrf	??_display_dashboard+1
  7074     1669  0851               	movf	??_display_dashboard,w
  7075     166A  00F4               	movwf	___awdiv@dividend
  7076     166B  0852               	movf	??_display_dashboard+1,w
  7077     166C  00F5               	movwf	___awdiv@dividend+1
  7078     166D  160A  118A  279D  160A  118A  	fcall	___awdiv
  7079     1672  0872               	movf	?___awdiv,w
  7080     1673  3E30               	addlw	48
  7081     1674  160A  118A  2200  160A  118A  	fcall	_clcd_putch
  7082                           
  7083                           ;car_black_box.c: 92:     clcd_putch(speed % 10 + '0', (0xC0 + 15));
  7084     1679  30CF               	movlw	207
  7085     167A  1283               	bcf	3,5	;RP0=0, select bank0
  7086     167B  1303               	bcf	3,6	;RP1=0, select bank0
  7087     167C  00CD               	movwf	clcd_putch@addr
  7088     167D  300A               	movlw	10
  7089     167E  00F2               	movwf	___awmod@divisor
  7090     167F  3000               	movlw	0
  7091     1680  00F3               	movwf	___awmod@divisor+1
  7092     1681  0850               	movf	display_dashboard@speed,w
  7093     1682  00D1               	movwf	??_display_dashboard
  7094     1683  01D2               	clrf	??_display_dashboard+1
  7095     1684  0851               	movf	??_display_dashboard,w
  7096     1685  00F4               	movwf	___awmod@dividend
  7097     1686  0852               	movf	??_display_dashboard+1,w
  7098     1687  00F5               	movwf	___awmod@dividend+1
  7099     1688  160A  118A  2695  160A  118A  	fcall	___awmod
  7100     168D  0872               	movf	?___awmod,w
  7101     168E  3E30               	addlw	48
  7102     168F  160A  118A  2200  160A  118A  	fcall	_clcd_putch
  7103     1694                     l299:
  7104     1694  0008               	return
  7105     1695                     __end_of_display_dashboard:
  7106                           
  7107                           	psect	text26
  7108     08F3                     __ptext26:	
  7109 ;; *************** function _display_time *****************
  7110 ;; Defined at:
  7111 ;;		line 55 in file "car_black_box.c"
  7112 ;; Parameters:    Size  Location     Type
  7113 ;;		None
  7114 ;; Auto vars:     Size  Location     Type
  7115 ;;		None
  7116 ;; Return value:  Size  Location     Type
  7117 ;;                  1    wreg      void 
  7118 ;; Registers used:
  7119 ;;		wreg, status,2, status,0, pclath, cstack
  7120 ;; Tracked objects:
  7121 ;;		On entry : 0/0
  7122 ;;		On exit  : 0/0
  7123 ;;		Unchanged: 0/0
  7124 ;; Data sizes:     COMMON   BANK0   BANK1   BANK3   BANK2
  7125 ;;      Params:         0       0       0       0       0
  7126 ;;      Locals:         0       0       0       0       0
  7127 ;;      Temps:          0       0       0       0       0
  7128 ;;      Totals:         0       0       0       0       0
  7129 ;;Total ram usage:        0 bytes
  7130 ;; Hardware stack levels used: 1
  7131 ;; Hardware stack levels required when called: 6
  7132 ;; This function calls:
  7133 ;;		_clcd_putch
  7134 ;;		_get_time
  7135 ;; This function is called by:
  7136 ;;		_display_dashboard
  7137 ;; This function uses a non-reentrant model
  7138 ;;
  7139                           
  7140     08F3                     _display_time:	
  7141                           ;psect for function _display_time
  7142                           
  7143     08F3                     l3886:	
  7144                           ;incstack = 0
  7145                           ; Regs used in _display_time: [wreg+status,2+status,0+pclath+cstack]
  7146                           
  7147                           
  7148                           ;car_black_box.c: 57:     get_time();
  7149     08F3  160A  118A  25F4  120A  158A  	fcall	_get_time
  7150                           
  7151                           ;car_black_box.c: 62:     clcd_putch(time[0], (0xC0 + 2));
  7152     08F8  30C2               	movlw	194
  7153     08F9  1283               	bcf	3,5	;RP0=0, select bank0
  7154     08FA  1303               	bcf	3,6	;RP1=0, select bank0
  7155     08FB  00CD               	movwf	clcd_putch@addr
  7156     08FC  083E               	movf	_time,w
  7157     08FD  160A  118A  2200  120A  158A  	fcall	_clcd_putch
  7158                           
  7159                           ;car_black_box.c: 63:     clcd_putch(time[1], (0xC0 + 3));
  7160     0902  30C3               	movlw	195
  7161     0903  1283               	bcf	3,5	;RP0=0, select bank0
  7162     0904  1303               	bcf	3,6	;RP1=0, select bank0
  7163     0905  00CD               	movwf	clcd_putch@addr
  7164     0906  083F               	movf	_time+1,w
  7165     0907  160A  118A  2200  120A  158A  	fcall	_clcd_putch
  7166                           
  7167                           ;car_black_box.c: 64:     clcd_putch(':', (0xC0 + 4));
  7168     090C  30C4               	movlw	196
  7169     090D  1283               	bcf	3,5	;RP0=0, select bank0
  7170     090E  1303               	bcf	3,6	;RP1=0, select bank0
  7171     090F  00CD               	movwf	clcd_putch@addr
  7172     0910  303A               	movlw	58
  7173     0911  160A  118A  2200  120A  158A  	fcall	_clcd_putch
  7174                           
  7175                           ;car_black_box.c: 67:     clcd_putch(time[2], (0xC0 + 5));
  7176     0916  30C5               	movlw	197
  7177     0917  1283               	bcf	3,5	;RP0=0, select bank0
  7178     0918  1303               	bcf	3,6	;RP1=0, select bank0
  7179     0919  00CD               	movwf	clcd_putch@addr
  7180     091A  0840               	movf	_time+2,w
  7181     091B  160A  118A  2200  120A  158A  	fcall	_clcd_putch
  7182                           
  7183                           ;car_black_box.c: 68:     clcd_putch(time[3], (0xC0 + 6));
  7184     0920  30C6               	movlw	198
  7185     0921  1283               	bcf	3,5	;RP0=0, select bank0
  7186     0922  1303               	bcf	3,6	;RP1=0, select bank0
  7187     0923  00CD               	movwf	clcd_putch@addr
  7188     0924  0841               	movf	_time+3,w
  7189     0925  160A  118A  2200  120A  158A  	fcall	_clcd_putch
  7190                           
  7191                           ;car_black_box.c: 69:     clcd_putch(':', (0xC0 + 7));
  7192     092A  30C7               	movlw	199
  7193     092B  1283               	bcf	3,5	;RP0=0, select bank0
  7194     092C  1303               	bcf	3,6	;RP1=0, select bank0
  7195     092D  00CD               	movwf	clcd_putch@addr
  7196     092E  303A               	movlw	58
  7197     092F  160A  118A  2200  120A  158A  	fcall	_clcd_putch
  7198                           
  7199                           ;car_black_box.c: 72:     clcd_putch(time[4], (0xC0 + 8));
  7200     0934  30C8               	movlw	200
  7201     0935  1283               	bcf	3,5	;RP0=0, select bank0
  7202     0936  1303               	bcf	3,6	;RP1=0, select bank0
  7203     0937  00CD               	movwf	clcd_putch@addr
  7204     0938  0842               	movf	_time+4,w
  7205     0939  160A  118A  2200  120A  158A  	fcall	_clcd_putch
  7206                           
  7207                           ;car_black_box.c: 73:     clcd_putch(time[5], (0xC0 + 9));
  7208     093E  30C9               	movlw	201
  7209     093F  1283               	bcf	3,5	;RP0=0, select bank0
  7210     0940  1303               	bcf	3,6	;RP1=0, select bank0
  7211     0941  00CD               	movwf	clcd_putch@addr
  7212     0942  0843               	movf	_time+5,w
  7213     0943  160A  118A  2200  120A  158A  	fcall	_clcd_putch
  7214     0948                     l296:
  7215     0948  0008               	return
  7216     0949                     __end_of_display_time:
  7217                           
  7218                           	psect	text27
  7219     1695                     __ptext27:	
  7220 ;; *************** function ___awmod *****************
  7221 ;; Defined at:
  7222 ;;		line 5 in file "C:\Program Files\Microchip\xc8\v2.50\pic\sources\c99\common\awmod.c"
  7223 ;; Parameters:    Size  Location     Type
  7224 ;;  divisor         2    2[COMMON] int 
  7225 ;;  dividend        2    4[COMMON] int 
  7226 ;; Auto vars:     Size  Location     Type
  7227 ;;  sign            1    7[COMMON] unsigned char 
  7228 ;;  counter         1    6[COMMON] unsigned char 
  7229 ;; Return value:  Size  Location     Type
  7230 ;;                  2    2[COMMON] int 
  7231 ;; Registers used:
  7232 ;;		wreg, status,2, status,0
  7233 ;; Tracked objects:
  7234 ;;		On entry : 0/0
  7235 ;;		On exit  : 0/0
  7236 ;;		Unchanged: 0/0
  7237 ;; Data sizes:     COMMON   BANK0   BANK1   BANK3   BANK2
  7238 ;;      Params:         4       0       0       0       0
  7239 ;;      Locals:         2       0       0       0       0
  7240 ;;      Temps:          0       0       0       0       0
  7241 ;;      Totals:         6       0       0       0       0
  7242 ;;Total ram usage:        6 bytes
  7243 ;; Hardware stack levels used: 1
  7244 ;; Hardware stack levels required when called: 1
  7245 ;; This function calls:
  7246 ;;		Nothing
  7247 ;; This function is called by:
  7248 ;;		_display_dashboard
  7249 ;;		_log_car_event
  7250 ;; This function uses a non-reentrant model
  7251 ;;
  7252                           
  7253     1695                     ___awmod:	
  7254                           ;psect for function ___awmod
  7255                           
  7256     1695                     l4028:	
  7257                           ;incstack = 0
  7258                           ; Regs used in ___awmod: [wreg+status,2+status,0]
  7259                           
  7260     1695  01F7               	clrf	___awmod@sign
  7261     1696                     l4030:
  7262     1696  1FF5               	btfss	___awmod@dividend+1,7
  7263     1697  2E99               	goto	u3781
  7264     1698  2E9A               	goto	u3780
  7265     1699                     u3781:
  7266     1699  2EA1               	goto	l4036
  7267     169A                     u3780:
  7268     169A                     l4032:
  7269     169A  09F4               	comf	___awmod@dividend,f
  7270     169B  09F5               	comf	___awmod@dividend+1,f
  7271     169C  0AF4               	incf	___awmod@dividend,f
  7272     169D  1903               	skipnz
  7273     169E  0AF5               	incf	___awmod@dividend+1,f
  7274     169F                     l4034:
  7275     169F  3001               	movlw	1
  7276     16A0  00F7               	movwf	___awmod@sign
  7277     16A1                     l4036:
  7278     16A1  1FF3               	btfss	___awmod@divisor+1,7
  7279     16A2  2EA4               	goto	u3791
  7280     16A3  2EA5               	goto	u3790
  7281     16A4                     u3791:
  7282     16A4  2EAA               	goto	l4040
  7283     16A5                     u3790:
  7284     16A5                     l4038:
  7285     16A5  09F2               	comf	___awmod@divisor,f
  7286     16A6  09F3               	comf	___awmod@divisor+1,f
  7287     16A7  0AF2               	incf	___awmod@divisor,f
  7288     16A8  1903               	skipnz
  7289     16A9  0AF3               	incf	___awmod@divisor+1,f
  7290     16AA                     l4040:
  7291     16AA  0872               	movf	___awmod@divisor,w
  7292     16AB  0473               	iorwf	___awmod@divisor+1,w
  7293     16AC  1903               	btfsc	3,2
  7294     16AD  2EAF               	goto	u3801
  7295     16AE  2EB0               	goto	u3800
  7296     16AF                     u3801:
  7297     16AF  2EDD               	goto	l4058
  7298     16B0                     u3800:
  7299     16B0                     l4042:
  7300     16B0  3001               	movlw	1
  7301     16B1  00F6               	movwf	___awmod@counter
  7302     16B2  2EBC               	goto	l4048
  7303     16B3                     l4044:
  7304     16B3  3001               	movlw	1
  7305     16B4                     u3815:
  7306     16B4  1003               	clrc
  7307     16B5  0DF2               	rlf	___awmod@divisor,f
  7308     16B6  0DF3               	rlf	___awmod@divisor+1,f
  7309     16B7  3EFF               	addlw	-1
  7310     16B8  1D03               	skipz
  7311     16B9  2EB4               	goto	u3815
  7312     16BA                     l4046:
  7313     16BA  3001               	movlw	1
  7314     16BB  07F6               	addwf	___awmod@counter,f
  7315     16BC                     l4048:
  7316     16BC  1FF3               	btfss	___awmod@divisor+1,7
  7317     16BD  2EBF               	goto	u3821
  7318     16BE  2EC0               	goto	u3820
  7319     16BF                     u3821:
  7320     16BF  2EB3               	goto	l4044
  7321     16C0                     u3820:
  7322     16C0                     l4050:
  7323     16C0  0873               	movf	___awmod@divisor+1,w
  7324     16C1  0275               	subwf	___awmod@dividend+1,w
  7325     16C2  1D03               	skipz
  7326     16C3  2EC6               	goto	u3835
  7327     16C4  0872               	movf	___awmod@divisor,w
  7328     16C5  0274               	subwf	___awmod@dividend,w
  7329     16C6                     u3835:
  7330     16C6  1C03               	skipc
  7331     16C7  2EC9               	goto	u3831
  7332     16C8  2ECA               	goto	u3830
  7333     16C9                     u3831:
  7334     16C9  2ED0               	goto	l4054
  7335     16CA                     u3830:
  7336     16CA                     l4052:
  7337     16CA  0872               	movf	___awmod@divisor,w
  7338     16CB  02F4               	subwf	___awmod@dividend,f
  7339     16CC  0873               	movf	___awmod@divisor+1,w
  7340     16CD  1C03               	skipc
  7341     16CE  03F5               	decf	___awmod@dividend+1,f
  7342     16CF  02F5               	subwf	___awmod@dividend+1,f
  7343     16D0                     l4054:
  7344     16D0  3001               	movlw	1
  7345     16D1                     u3845:
  7346     16D1  1003               	clrc
  7347     16D2  0CF3               	rrf	___awmod@divisor+1,f
  7348     16D3  0CF2               	rrf	___awmod@divisor,f
  7349     16D4  3EFF               	addlw	-1
  7350     16D5  1D03               	skipz
  7351     16D6  2ED1               	goto	u3845
  7352     16D7                     l4056:
  7353     16D7  3001               	movlw	1
  7354     16D8  02F6               	subwf	___awmod@counter,f
  7355     16D9  1D03               	btfss	3,2
  7356     16DA  2EDC               	goto	u3851
  7357     16DB  2EDD               	goto	u3850
  7358     16DC                     u3851:
  7359     16DC  2EC0               	goto	l4050
  7360     16DD                     u3850:
  7361     16DD                     l4058:
  7362     16DD  0877               	movf	___awmod@sign,w
  7363     16DE  1903               	btfsc	3,2
  7364     16DF  2EE1               	goto	u3861
  7365     16E0  2EE2               	goto	u3860
  7366     16E1                     u3861:
  7367     16E1  2EE7               	goto	l4062
  7368     16E2                     u3860:
  7369     16E2                     l4060:
  7370     16E2  09F4               	comf	___awmod@dividend,f
  7371     16E3  09F5               	comf	___awmod@dividend+1,f
  7372     16E4  0AF4               	incf	___awmod@dividend,f
  7373     16E5  1903               	skipnz
  7374     16E6  0AF5               	incf	___awmod@dividend+1,f
  7375     16E7                     l4062:
  7376     16E7  0875               	movf	___awmod@dividend+1,w
  7377     16E8  00F3               	movwf	?___awmod+1
  7378     16E9  0874               	movf	___awmod@dividend,w
  7379     16EA  00F2               	movwf	?___awmod
  7380     16EB                     l803:
  7381     16EB  0008               	return
  7382     16EC                     __end_of___awmod:
  7383                           
  7384                           	psect	text28
  7385     179D                     __ptext28:	
  7386 ;; *************** function ___awdiv *****************
  7387 ;; Defined at:
  7388 ;;		line 5 in file "C:\Program Files\Microchip\xc8\v2.50\pic\sources\c99\common\awdiv.c"
  7389 ;; Parameters:    Size  Location     Type
  7390 ;;  divisor         2    2[COMMON] int 
  7391 ;;  dividend        2    4[COMMON] int 
  7392 ;; Auto vars:     Size  Location     Type
  7393 ;;  quotient        2    8[COMMON] int 
  7394 ;;  sign            1    7[COMMON] unsigned char 
  7395 ;;  counter         1    6[COMMON] unsigned char 
  7396 ;; Return value:  Size  Location     Type
  7397 ;;                  2    2[COMMON] int 
  7398 ;; Registers used:
  7399 ;;		wreg, status,2, status,0
  7400 ;; Tracked objects:
  7401 ;;		On entry : 0/0
  7402 ;;		On exit  : 0/0
  7403 ;;		Unchanged: 0/0
  7404 ;; Data sizes:     COMMON   BANK0   BANK1   BANK3   BANK2
  7405 ;;      Params:         4       0       0       0       0
  7406 ;;      Locals:         4       0       0       0       0
  7407 ;;      Temps:          0       0       0       0       0
  7408 ;;      Totals:         8       0       0       0       0
  7409 ;;Total ram usage:        8 bytes
  7410 ;; Hardware stack levels used: 1
  7411 ;; Hardware stack levels required when called: 1
  7412 ;; This function calls:
  7413 ;;		Nothing
  7414 ;; This function is called by:
  7415 ;;		_display_dashboard
  7416 ;;		_log_car_event
  7417 ;; This function uses a non-reentrant model
  7418 ;;
  7419                           
  7420     179D                     ___awdiv:	
  7421                           ;psect for function ___awdiv
  7422                           
  7423     179D                     l3984:	
  7424                           ;incstack = 0
  7425                           ; Regs used in ___awdiv: [wreg+status,2+status,0]
  7426                           
  7427     179D  01F7               	clrf	___awdiv@sign
  7428     179E                     l3986:
  7429     179E  1FF3               	btfss	___awdiv@divisor+1,7
  7430     179F  2FA1               	goto	u3681
  7431     17A0  2FA2               	goto	u3680
  7432     17A1                     u3681:
  7433     17A1  2FA9               	goto	l3992
  7434     17A2                     u3680:
  7435     17A2                     l3988:
  7436     17A2  09F2               	comf	___awdiv@divisor,f
  7437     17A3  09F3               	comf	___awdiv@divisor+1,f
  7438     17A4  0AF2               	incf	___awdiv@divisor,f
  7439     17A5  1903               	skipnz
  7440     17A6  0AF3               	incf	___awdiv@divisor+1,f
  7441     17A7                     l3990:
  7442     17A7  3001               	movlw	1
  7443     17A8  00F7               	movwf	___awdiv@sign
  7444     17A9                     l3992:
  7445     17A9  1FF5               	btfss	___awdiv@dividend+1,7
  7446     17AA  2FAC               	goto	u3691
  7447     17AB  2FAD               	goto	u3690
  7448     17AC                     u3691:
  7449     17AC  2FB4               	goto	l3998
  7450     17AD                     u3690:
  7451     17AD                     l3994:
  7452     17AD  09F4               	comf	___awdiv@dividend,f
  7453     17AE  09F5               	comf	___awdiv@dividend+1,f
  7454     17AF  0AF4               	incf	___awdiv@dividend,f
  7455     17B0  1903               	skipnz
  7456     17B1  0AF5               	incf	___awdiv@dividend+1,f
  7457     17B2                     l3996:
  7458     17B2  3001               	movlw	1
  7459     17B3  06F7               	xorwf	___awdiv@sign,f
  7460     17B4                     l3998:
  7461     17B4  01F8               	clrf	___awdiv@quotient
  7462     17B5  01F9               	clrf	___awdiv@quotient+1
  7463     17B6                     l4000:
  7464     17B6  0872               	movf	___awdiv@divisor,w
  7465     17B7  0473               	iorwf	___awdiv@divisor+1,w
  7466     17B8  1903               	btfsc	3,2
  7467     17B9  2FBB               	goto	u3701
  7468     17BA  2FBC               	goto	u3700
  7469     17BB                     u3701:
  7470     17BB  2FF1               	goto	l4020
  7471     17BC                     u3700:
  7472     17BC                     l4002:
  7473     17BC  3001               	movlw	1
  7474     17BD  00F6               	movwf	___awdiv@counter
  7475     17BE  2FC8               	goto	l4008
  7476     17BF                     l4004:
  7477     17BF  3001               	movlw	1
  7478     17C0                     u3715:
  7479     17C0  1003               	clrc
  7480     17C1  0DF2               	rlf	___awdiv@divisor,f
  7481     17C2  0DF3               	rlf	___awdiv@divisor+1,f
  7482     17C3  3EFF               	addlw	-1
  7483     17C4  1D03               	skipz
  7484     17C5  2FC0               	goto	u3715
  7485     17C6                     l4006:
  7486     17C6  3001               	movlw	1
  7487     17C7  07F6               	addwf	___awdiv@counter,f
  7488     17C8                     l4008:
  7489     17C8  1FF3               	btfss	___awdiv@divisor+1,7
  7490     17C9  2FCB               	goto	u3721
  7491     17CA  2FCC               	goto	u3720
  7492     17CB                     u3721:
  7493     17CB  2FBF               	goto	l4004
  7494     17CC                     u3720:
  7495     17CC                     l4010:
  7496     17CC  3001               	movlw	1
  7497     17CD                     u3735:
  7498     17CD  1003               	clrc
  7499     17CE  0DF8               	rlf	___awdiv@quotient,f
  7500     17CF  0DF9               	rlf	___awdiv@quotient+1,f
  7501     17D0  3EFF               	addlw	-1
  7502     17D1  1D03               	skipz
  7503     17D2  2FCD               	goto	u3735
  7504     17D3  0873               	movf	___awdiv@divisor+1,w
  7505     17D4  0275               	subwf	___awdiv@dividend+1,w
  7506     17D5  1D03               	skipz
  7507     17D6  2FD9               	goto	u3745
  7508     17D7  0872               	movf	___awdiv@divisor,w
  7509     17D8  0274               	subwf	___awdiv@dividend,w
  7510     17D9                     u3745:
  7511     17D9  1C03               	skipc
  7512     17DA  2FDC               	goto	u3741
  7513     17DB  2FDD               	goto	u3740
  7514     17DC                     u3741:
  7515     17DC  2FE4               	goto	l4016
  7516     17DD                     u3740:
  7517     17DD                     l4012:
  7518     17DD  0872               	movf	___awdiv@divisor,w
  7519     17DE  02F4               	subwf	___awdiv@dividend,f
  7520     17DF  0873               	movf	___awdiv@divisor+1,w
  7521     17E0  1C03               	skipc
  7522     17E1  03F5               	decf	___awdiv@dividend+1,f
  7523     17E2  02F5               	subwf	___awdiv@dividend+1,f
  7524     17E3                     l4014:
  7525     17E3  1478               	bsf	___awdiv@quotient,0
  7526     17E4                     l4016:
  7527     17E4  3001               	movlw	1
  7528     17E5                     u3755:
  7529     17E5  1003               	clrc
  7530     17E6  0CF3               	rrf	___awdiv@divisor+1,f
  7531     17E7  0CF2               	rrf	___awdiv@divisor,f
  7532     17E8  3EFF               	addlw	-1
  7533     17E9  1D03               	skipz
  7534     17EA  2FE5               	goto	u3755
  7535     17EB                     l4018:
  7536     17EB  3001               	movlw	1
  7537     17EC  02F6               	subwf	___awdiv@counter,f
  7538     17ED  1D03               	btfss	3,2
  7539     17EE  2FF0               	goto	u3761
  7540     17EF  2FF1               	goto	u3760
  7541     17F0                     u3761:
  7542     17F0  2FCC               	goto	l4010
  7543     17F1                     u3760:
  7544     17F1                     l4020:
  7545     17F1  0877               	movf	___awdiv@sign,w
  7546     17F2  1903               	btfsc	3,2
  7547     17F3  2FF5               	goto	u3771
  7548     17F4  2FF6               	goto	u3770
  7549     17F5                     u3771:
  7550     17F5  2FFB               	goto	l4024
  7551     17F6                     u3770:
  7552     17F6                     l4022:
  7553     17F6  09F8               	comf	___awdiv@quotient,f
  7554     17F7  09F9               	comf	___awdiv@quotient+1,f
  7555     17F8  0AF8               	incf	___awdiv@quotient,f
  7556     17F9  1903               	skipnz
  7557     17FA  0AF9               	incf	___awdiv@quotient+1,f
  7558     17FB                     l4024:
  7559     17FB  0879               	movf	___awdiv@quotient+1,w
  7560     17FC  00F3               	movwf	?___awdiv+1
  7561     17FD  0878               	movf	___awdiv@quotient,w
  7562     17FE  00F2               	movwf	?___awdiv
  7563     17FF                     l790:
  7564     17FF  0008               	return
  7565     1800                     __end_of___awdiv:
  7566                           
  7567                           	psect	text29
  7568     134F                     __ptext29:	
  7569 ;; *************** function _clear_log *****************
  7570 ;; Defined at:
  7571 ;;		line 419 in file "car_black_box.c"
  7572 ;; Parameters:    Size  Location     Type
  7573 ;;  reset_memory    1    wreg     unsigned char 
  7574 ;; Auto vars:     Size  Location     Type
  7575 ;;  reset_memory    1    9[COMMON] unsigned char 
  7576 ;; Return value:  Size  Location     Type
  7577 ;;                  1    wreg      unsigned char 
  7578 ;; Registers used:
  7579 ;;		wreg, fsr0l, fsr0h, status,2, status,0, btemp+1, pclath, cstack
  7580 ;; Tracked objects:
  7581 ;;		On entry : 0/0
  7582 ;;		On exit  : 0/0
  7583 ;;		Unchanged: 0/0
  7584 ;; Data sizes:     COMMON   BANK0   BANK1   BANK3   BANK2
  7585 ;;      Params:         0       0       0       0       0
  7586 ;;      Locals:         1       0       0       0       0
  7587 ;;      Temps:          0       0       0       0       0
  7588 ;;      Totals:         1       0       0       0       0
  7589 ;;Total ram usage:        1 bytes
  7590 ;; Hardware stack levels used: 1
  7591 ;; Hardware stack levels required when called: 3
  7592 ;; This function calls:
  7593 ;;		_clcd_print
  7594 ;; This function is called by:
  7595 ;;		_main
  7596 ;; This function uses a non-reentrant model
  7597 ;;
  7598                           
  7599     134F                     _clear_log:	
  7600                           ;psect for function _clear_log
  7601                           
  7602                           
  7603                           ;incstack = 0
  7604                           ; Regs used in _clear_log: [wreg-fsr0h+status,2+status,0+btemp+1+pclath+cstack]
  7605                           ;clear_log@reset_memory stored from wreg
  7606     134F  00F9               	movwf	clear_log@reset_memory
  7607     1350                     l4486:
  7608                           
  7609                           ;car_black_box.c: 419: char clear_log(char reset_memory);car_black_box.c: 420: {;car_bla
      +                          ck_box.c: 421:     clcd_print("Logs cleared", (0x80 + 2));
  7610     1350  306F               	movlw	low (STR_32| (0+32768))
  7611     1351  00F6               	movwf	clcd_print@str
  7612     1352  3088               	movlw	high (STR_32| (0+32768))
  7613     1353  00F7               	movwf	clcd_print@str+1
  7614     1354  3082               	movlw	130
  7615     1355  00F8               	movwf	clcd_print@addr
  7616     1356  160A  118A  23A5  160A  118A  	fcall	_clcd_print
  7617                           
  7618                           ;car_black_box.c: 422:     clcd_print("successfully", (0xC0 + 2));
  7619     135B  3096               	movlw	low (STR_33| (0+32768))
  7620     135C  00F6               	movwf	clcd_print@str
  7621     135D  3088               	movlw	high (STR_33| (0+32768))
  7622     135E  00F7               	movwf	clcd_print@str+1
  7623     135F  30C2               	movlw	194
  7624     1360  00F8               	movwf	clcd_print@addr
  7625     1361  160A  118A  23A5  160A  118A  	fcall	_clcd_print
  7626     1366                     l4488:
  7627                           
  7628                           ;car_black_box.c: 425:     if (reset_memory == 0x40)
  7629     1366  3040               	movlw	64
  7630     1367  0679               	xorwf	clear_log@reset_memory,w
  7631     1368  1D03               	btfss	3,2
  7632     1369  2B6B               	goto	u4441
  7633     136A  2B6C               	goto	u4440
  7634     136B                     u4441:
  7635     136B  2B78               	goto	l4494
  7636     136C                     u4440:
  7637     136C                     l4490:
  7638                           
  7639                           ;car_black_box.c: 426:     {;car_black_box.c: 428:         pos = -1;
  7640     136C  30FF               	movlw	255
  7641     136D  1283               	bcf	3,5	;RP0=0, select bank0
  7642     136E  1303               	bcf	3,6	;RP1=0, select bank0
  7643     136F  00E8               	movwf	_pos
  7644     1370  30FF               	movlw	255
  7645     1371  00E9               	movwf	_pos+1
  7646                           
  7647                           ;car_black_box.c: 429:         event_count = -1;
  7648     1372  30FF               	movlw	255
  7649     1373  00E6               	movwf	_event_count
  7650     1374  30FF               	movlw	255
  7651     1375  00E7               	movwf	_event_count+1
  7652                           
  7653                           ;car_black_box.c: 431:         return 0x0C;
  7654     1376  300C               	movlw	12
  7655     1377  2B79               	goto	l364
  7656     1378                     l4494:
  7657                           
  7658                           ;car_black_box.c: 434:     return 0x0D;
  7659     1378  300D               	movlw	13
  7660     1379                     l364:
  7661     1379  0008               	return
  7662     137A                     __end_of_clear_log:
  7663                           
  7664                           	psect	text30
  7665     0382                     __ptext30:	
  7666 ;; *************** function _change_time *****************
  7667 ;; Defined at:
  7668 ;;		line 640 in file "car_black_box.c"
  7669 ;; Parameters:    Size  Location     Type
  7670 ;;  key             1    wreg     unsigned char 
  7671 ;;  reset_time      1   10[BANK0 ] unsigned char 
  7672 ;; Auto vars:     Size  Location     Type
  7673 ;;  key             1   14[BANK0 ] unsigned char 
  7674 ;;  buffer          1   15[BANK0 ] unsigned char 
  7675 ;; Return value:  Size  Location     Type
  7676 ;;                  1    wreg      unsigned char 
  7677 ;; Registers used:
  7678 ;;		wreg, fsr0l, fsr0h, status,2, status,0, btemp+1, pclath, cstack
  7679 ;; Tracked objects:
  7680 ;;		On entry : 0/0
  7681 ;;		On exit  : 0/0
  7682 ;;		Unchanged: 0/0
  7683 ;; Data sizes:     COMMON   BANK0   BANK1   BANK3   BANK2
  7684 ;;      Params:         0       1       0       0       0
  7685 ;;      Locals:         0       2       0       0       0
  7686 ;;      Temps:          0       3       0       0       0
  7687 ;;      Totals:         0       6       0       0       0
  7688 ;;Total ram usage:        6 bytes
  7689 ;; Hardware stack levels used: 1
  7690 ;; Hardware stack levels required when called: 6
  7691 ;; This function calls:
  7692 ;;		___lwdiv
  7693 ;;		___lwmod
  7694 ;;		___wmul
  7695 ;;		_clcd_print
  7696 ;;		_clcd_putch
  7697 ;;		_clcd_write
  7698 ;;		_get_time
  7699 ;;		_write_ds1307
  7700 ;; This function is called by:
  7701 ;;		_main
  7702 ;; This function uses a non-reentrant model
  7703 ;;
  7704                           
  7705     0382                     _change_time:	
  7706                           ;psect for function _change_time
  7707                           
  7708                           
  7709                           ;incstack = 0
  7710                           ; Regs used in _change_time: [wreg-fsr0h+status,2+status,0+btemp+1+pclath+cstack]
  7711                           ;change_time@key stored from wreg
  7712     0382  1283               	bcf	3,5	;RP0=0, select bank0
  7713     0383  1303               	bcf	3,6	;RP1=0, select bank0
  7714     0384  00D3               	movwf	change_time@key
  7715     0385                     l4620:
  7716                           
  7717                           ;car_black_box.c: 640: char change_time(unsigned char key, unsigned char reset_time);car
      +                          _black_box.c: 641: {;car_black_box.c: 642:     static unsigned int new_time[3];;car_blac
      +                          k_box.c: 643:     static unsigned int blink_pos;;car_black_box.c: 644:     static unsign
      +                          ed char wait;;car_black_box.c: 645:     static unsigned char blink;;car_black_box.c: 646
      +                          :     static char t_done = 0;;car_black_box.c: 647:     char buffer;;car_black_box.c: 65
      +                          1:     if (reset_time == 0x30)
  7718     0385  3030               	movlw	48
  7719     0386  064F               	xorwf	change_time@reset_time,w
  7720     0387  1D03               	btfss	3,2
  7721     0388  2B8A               	goto	u4601
  7722     0389  2B8B               	goto	u4600
  7723     038A                     u4601:
  7724     038A  2C02               	goto	l4636
  7725     038B                     u4600:
  7726     038B                     l4622:
  7727                           
  7728                           ;car_black_box.c: 652:     {;car_black_box.c: 653:         get_time();
  7729     038B  160A  118A  25F4  120A  118A  	fcall	_get_time
  7730                           
  7731                           ;car_black_box.c: 656:         new_time[0] = (time[0] & 0x0F) * 10 + (time[1] & 0x0F);
  7732     0390  300F               	movlw	15
  7733     0391  1283               	bcf	3,5	;RP0=0, select bank0
  7734     0392  1303               	bcf	3,6	;RP1=0, select bank0
  7735     0393  053F               	andwf	_time+1,w
  7736     0394  00D0               	movwf	??_change_time
  7737     0395  083E               	movf	_time,w
  7738     0396  390F               	andlw	15
  7739     0397  00D1               	movwf	??_change_time+1
  7740     0398  01D2               	clrf	??_change_time+2
  7741     0399  0851               	movf	??_change_time+1,w
  7742     039A  00F2               	movwf	___wmul@multiplier
  7743     039B  0852               	movf	??_change_time+2,w
  7744     039C  00F3               	movwf	___wmul@multiplier+1
  7745     039D  300A               	movlw	10
  7746     039E  00F4               	movwf	___wmul@multiplicand
  7747     039F  3000               	movlw	0
  7748     03A0  00F5               	movwf	___wmul@multiplicand+1
  7749     03A1  160A  118A  22AE  120A  118A  	fcall	___wmul
  7750     03A6  1283               	bcf	3,5	;RP0=0, select bank0
  7751     03A7  1303               	bcf	3,6	;RP1=0, select bank0
  7752     03A8  0850               	movf	??_change_time,w
  7753     03A9  0772               	addwf	?___wmul,w
  7754     03AA  00A0               	movwf	change_time@new_time
  7755     03AB  3000               	movlw	0
  7756     03AC  1803               	skipnc
  7757     03AD  3001               	movlw	1
  7758     03AE  0773               	addwf	?___wmul+1,w
  7759     03AF  00A1               	movwf	change_time@new_time+1
  7760                           
  7761                           ;car_black_box.c: 659:         new_time[1] = (time[2] & 0x0F) * 10 + (time[3] & 0x0F);
  7762     03B0  300F               	movlw	15
  7763     03B1  0541               	andwf	_time+3,w
  7764     03B2  00D0               	movwf	??_change_time
  7765     03B3  0840               	movf	_time+2,w
  7766     03B4  390F               	andlw	15
  7767     03B5  00D1               	movwf	??_change_time+1
  7768     03B6  01D2               	clrf	??_change_time+2
  7769     03B7  0851               	movf	??_change_time+1,w
  7770     03B8  00F2               	movwf	___wmul@multiplier
  7771     03B9  0852               	movf	??_change_time+2,w
  7772     03BA  00F3               	movwf	___wmul@multiplier+1
  7773     03BB  300A               	movlw	10
  7774     03BC  00F4               	movwf	___wmul@multiplicand
  7775     03BD  3000               	movlw	0
  7776     03BE  00F5               	movwf	___wmul@multiplicand+1
  7777     03BF  160A  118A  22AE  120A  118A  	fcall	___wmul
  7778     03C4  1283               	bcf	3,5	;RP0=0, select bank0
  7779     03C5  1303               	bcf	3,6	;RP1=0, select bank0
  7780     03C6  0850               	movf	??_change_time,w
  7781     03C7  0772               	addwf	?___wmul,w
  7782     03C8  00A2               	movwf	change_time@new_time+2
  7783     03C9  3000               	movlw	0
  7784     03CA  1803               	skipnc
  7785     03CB  3001               	movlw	1
  7786     03CC  0773               	addwf	?___wmul+1,w
  7787     03CD  00A3               	movwf	change_time@new_time+3
  7788                           
  7789                           ;car_black_box.c: 662:         new_time[2] = (time[4] & 0x0F) * 10 + (time[5] & 0x0F);
  7790     03CE  300F               	movlw	15
  7791     03CF  0543               	andwf	_time+5,w
  7792     03D0  00D0               	movwf	??_change_time
  7793     03D1  0842               	movf	_time+4,w
  7794     03D2  390F               	andlw	15
  7795     03D3  00D1               	movwf	??_change_time+1
  7796     03D4  01D2               	clrf	??_change_time+2
  7797     03D5  0851               	movf	??_change_time+1,w
  7798     03D6  00F2               	movwf	___wmul@multiplier
  7799     03D7  0852               	movf	??_change_time+2,w
  7800     03D8  00F3               	movwf	___wmul@multiplier+1
  7801     03D9  300A               	movlw	10
  7802     03DA  00F4               	movwf	___wmul@multiplicand
  7803     03DB  3000               	movlw	0
  7804     03DC  00F5               	movwf	___wmul@multiplicand+1
  7805     03DD  160A  118A  22AE  120A  118A  	fcall	___wmul
  7806     03E2  1283               	bcf	3,5	;RP0=0, select bank0
  7807     03E3  1303               	bcf	3,6	;RP1=0, select bank0
  7808     03E4  0850               	movf	??_change_time,w
  7809     03E5  0772               	addwf	?___wmul,w
  7810     03E6  00A4               	movwf	change_time@new_time+4
  7811     03E7  3000               	movlw	0
  7812     03E8  1803               	skipnc
  7813     03E9  3001               	movlw	1
  7814     03EA  0773               	addwf	?___wmul+1,w
  7815     03EB  00A5               	movwf	change_time@new_time+5
  7816     03EC                     l4624:
  7817                           
  7818                           ;car_black_box.c: 664:         clcd_print("Time (HH:MM:SS)", (0x80 + 0));
  7819     03EC  3025               	movlw	low (STR_49| (0+32768))
  7820     03ED  00F6               	movwf	clcd_print@str
  7821     03EE  3088               	movlw	high (STR_49| (0+32768))
  7822     03EF  00F7               	movwf	clcd_print@str+1
  7823     03F0  3080               	movlw	128
  7824     03F1  00F8               	movwf	clcd_print@addr
  7825     03F2  160A  118A  23A5  120A  118A  	fcall	_clcd_print
  7826     03F7                     l4626:
  7827                           
  7828                           ;car_black_box.c: 667:         blink_pos = 2;
  7829     03F7  3002               	movlw	2
  7830     03F8  1283               	bcf	3,5	;RP0=0, select bank0
  7831     03F9  1303               	bcf	3,6	;RP1=0, select bank0
  7832     03FA  00AD               	movwf	change_time@blink_pos
  7833     03FB  3000               	movlw	0
  7834     03FC  00AE               	movwf	change_time@blink_pos+1
  7835     03FD                     l4628:
  7836                           
  7837                           ;car_black_box.c: 668:         wait = 0;
  7838     03FD  01BA               	clrf	change_time@wait
  7839     03FE                     l4630:
  7840                           
  7841                           ;car_black_box.c: 669:         blink = 0;
  7842     03FE  01B9               	clrf	change_time@blink
  7843     03FF                     l4632:
  7844                           
  7845                           ;car_black_box.c: 670:         t_done = 0;
  7846     03FF  01B8               	clrf	change_time@t_done
  7847     0400                     l4634:
  7848                           
  7849                           ;car_black_box.c: 671:         key = 0x3F;
  7850     0400  303F               	movlw	63
  7851     0401  00D3               	movwf	change_time@key
  7852     0402                     l4636:
  7853                           
  7854                           ;car_black_box.c: 676:     if (t_done)
  7855     0402  0838               	movf	change_time@t_done,w
  7856     0403  1903               	btfsc	3,2
  7857     0404  2C06               	goto	u4611
  7858     0405  2C07               	goto	u4610
  7859     0406                     u4611:
  7860     0406  2D18               	goto	l4676
  7861     0407                     u4610:
  7862     0407                     l4638:
  7863                           
  7864                           ;car_black_box.c: 677:         return 0x0D;
  7865     0407  300D               	movlw	13
  7866     0408  2E49               	goto	l422
  7867     0409                     l4642:
  7868                           
  7869                           ;car_black_box.c: 684:             new_time[blink_pos]++;
  7870     0409  082D               	movf	change_time@blink_pos,w
  7871     040A  00D0               	movwf	??_change_time
  7872     040B  0750               	addwf	??_change_time,w
  7873     040C  3E20               	addlw	(low (change_time@new_time| 0))& (0+255)
  7874     040D  0084               	movwf	4
  7875     040E  3001               	movlw	1
  7876     040F  1383               	bcf	3,7	;select IRP bank0
  7877     0410  0780               	addwf	0,f
  7878     0411  0A84               	incf	4,f
  7879     0412  1803               	skipnc
  7880     0413  0A80               	incf	0,f
  7881                           
  7882                           ;car_black_box.c: 685:             break;
  7883     0414  2D23               	goto	l4678
  7884     0415                     l4644:
  7885                           
  7886                           ;car_black_box.c: 688:             blink_pos = (blink_pos + 1) % 3;
  7887     0415  3003               	movlw	3
  7888     0416  00C8               	movwf	___lwmod@divisor
  7889     0417  3000               	movlw	0
  7890     0418  00C9               	movwf	___lwmod@divisor+1
  7891     0419  082D               	movf	change_time@blink_pos,w
  7892     041A  3E01               	addlw	1
  7893     041B  00CA               	movwf	___lwmod@dividend
  7894     041C  082E               	movf	change_time@blink_pos+1,w
  7895     041D  1803               	skipnc
  7896     041E  3E01               	addlw	1
  7897     041F  3E00               	addlw	0
  7898     0420  00CB               	movwf	___lwmod@dividend+1
  7899     0421  160A  118A  246E  120A  118A  	fcall	___lwmod
  7900     0426  1283               	bcf	3,5	;RP0=0, select bank0
  7901     0427  1303               	bcf	3,6	;RP1=0, select bank0
  7902     0428  0849               	movf	?___lwmod+1,w
  7903     0429  00AE               	movwf	change_time@blink_pos+1
  7904     042A  0848               	movf	?___lwmod,w
  7905     042B  00AD               	movwf	change_time@blink_pos
  7906                           
  7907                           ;car_black_box.c: 689:             break;
  7908     042C  2D23               	goto	l4678
  7909     042D                     l4646:
  7910                           
  7911                           ;car_black_box.c: 693:             get_time();
  7912     042D  160A  118A  25F4  120A  118A  	fcall	_get_time
  7913                           
  7914                           ;car_black_box.c: 695:             buffer = ((new_time[0] / 10) << 4) | new_time[0] % 10
      +                          ;
  7915     0432  300A               	movlw	10
  7916     0433  1283               	bcf	3,5	;RP0=0, select bank0
  7917     0434  1303               	bcf	3,6	;RP1=0, select bank0
  7918     0435  00C8               	movwf	___lwmod@divisor
  7919     0436  3000               	movlw	0
  7920     0437  00C9               	movwf	___lwmod@divisor+1
  7921     0438  0821               	movf	change_time@new_time+1,w
  7922     0439  00CB               	movwf	___lwmod@dividend+1
  7923     043A  0820               	movf	change_time@new_time,w
  7924     043B  00CA               	movwf	___lwmod@dividend
  7925     043C  160A  118A  246E  120A  118A  	fcall	___lwmod
  7926     0441  1283               	bcf	3,5	;RP0=0, select bank0
  7927     0442  1303               	bcf	3,6	;RP1=0, select bank0
  7928     0443  0848               	movf	?___lwmod,w
  7929     0444  00D0               	movwf	??_change_time
  7930     0445  0849               	movf	?___lwmod+1,w
  7931     0446  00D1               	movwf	??_change_time+1
  7932     0447  300A               	movlw	10
  7933     0448  00F6               	movwf	___lwdiv@divisor
  7934     0449  3000               	movlw	0
  7935     044A  00F7               	movwf	___lwdiv@divisor+1
  7936     044B  0821               	movf	change_time@new_time+1,w
  7937     044C  00F9               	movwf	___lwdiv@dividend+1
  7938     044D  0820               	movf	change_time@new_time,w
  7939     044E  00F8               	movwf	___lwdiv@dividend
  7940     044F  160A  118A  2565  120A  118A  	fcall	___lwdiv
  7941     0454  0876               	movf	?___lwdiv,w
  7942     0455  1283               	bcf	3,5	;RP0=0, select bank0
  7943     0456  1303               	bcf	3,6	;RP1=0, select bank0
  7944     0457  00D2               	movwf	??_change_time+2
  7945     0458  3003               	movlw	3
  7946     0459                     u4625:
  7947     0459  1003               	clrc
  7948     045A  0DD2               	rlf	??_change_time+2,f
  7949     045B  3EFF               	addlw	-1
  7950     045C  1D03               	skipz
  7951     045D  2C59               	goto	u4625
  7952     045E  1003               	clrc
  7953     045F  0D52               	rlf	??_change_time+2,w
  7954     0460  0450               	iorwf	??_change_time,w
  7955     0461  00D4               	movwf	change_time@buffer
  7956     0462                     l4648:
  7957                           
  7958                           ;car_black_box.c: 696:             clock_reg[0] = (clock_reg[0] & 0xC0) | buffer;
  7959     0462  0826               	movf	_clock_reg,w
  7960     0463  39C0               	andlw	192
  7961     0464  0454               	iorwf	change_time@buffer,w
  7962     0465  00A6               	movwf	_clock_reg
  7963     0466                     l4650:
  7964                           
  7965                           ;car_black_box.c: 697:             write_ds1307(0x02, clock_reg[0]);
  7966     0466  0826               	movf	_clock_reg,w
  7967     0467  00F3               	movwf	write_ds1307@data
  7968     0468  3002               	movlw	2
  7969     0469  160A  118A  222E  120A  118A  	fcall	_write_ds1307
  7970     046E                     l4652:
  7971                           
  7972                           ;car_black_box.c: 700:             buffer = ((new_time[1] / 10) << 4) | new_time[1] % 10
      +                          ;
  7973     046E  300A               	movlw	10
  7974     046F  1283               	bcf	3,5	;RP0=0, select bank0
  7975     0470  1303               	bcf	3,6	;RP1=0, select bank0
  7976     0471  00C8               	movwf	___lwmod@divisor
  7977     0472  3000               	movlw	0
  7978     0473  00C9               	movwf	___lwmod@divisor+1
  7979     0474  0823               	movf	change_time@new_time+3,w
  7980     0475  00CB               	movwf	___lwmod@dividend+1
  7981     0476  0822               	movf	change_time@new_time+2,w
  7982     0477  00CA               	movwf	___lwmod@dividend
  7983     0478  160A  118A  246E  120A  118A  	fcall	___lwmod
  7984     047D  1283               	bcf	3,5	;RP0=0, select bank0
  7985     047E  1303               	bcf	3,6	;RP1=0, select bank0
  7986     047F  0848               	movf	?___lwmod,w
  7987     0480  00D0               	movwf	??_change_time
  7988     0481  0849               	movf	?___lwmod+1,w
  7989     0482  00D1               	movwf	??_change_time+1
  7990     0483  300A               	movlw	10
  7991     0484  00F6               	movwf	___lwdiv@divisor
  7992     0485  3000               	movlw	0
  7993     0486  00F7               	movwf	___lwdiv@divisor+1
  7994     0487  0823               	movf	change_time@new_time+3,w
  7995     0488  00F9               	movwf	___lwdiv@dividend+1
  7996     0489  0822               	movf	change_time@new_time+2,w
  7997     048A  00F8               	movwf	___lwdiv@dividend
  7998     048B  160A  118A  2565  120A  118A  	fcall	___lwdiv
  7999     0490  0876               	movf	?___lwdiv,w
  8000     0491  1283               	bcf	3,5	;RP0=0, select bank0
  8001     0492  1303               	bcf	3,6	;RP1=0, select bank0
  8002     0493  00D2               	movwf	??_change_time+2
  8003     0494  3003               	movlw	3
  8004     0495                     u4635:
  8005     0495  1003               	clrc
  8006     0496  0DD2               	rlf	??_change_time+2,f
  8007     0497  3EFF               	addlw	-1
  8008     0498  1D03               	skipz
  8009     0499  2C95               	goto	u4635
  8010     049A  1003               	clrc
  8011     049B  0D52               	rlf	??_change_time+2,w
  8012     049C  0450               	iorwf	??_change_time,w
  8013     049D  00D4               	movwf	change_time@buffer
  8014     049E                     l4654:
  8015                           
  8016                           ;car_black_box.c: 701:             clock_reg[1] = (clock_reg[1] & 0x80) | buffer;
  8017     049E  0827               	movf	_clock_reg+1,w
  8018     049F  3980               	andlw	128
  8019     04A0  0454               	iorwf	change_time@buffer,w
  8020     04A1  00A7               	movwf	_clock_reg+1
  8021                           
  8022                           ;car_black_box.c: 702:             write_ds1307(0x01, clock_reg[1]);
  8023     04A2  0827               	movf	_clock_reg+1,w
  8024     04A3  00F3               	movwf	write_ds1307@data
  8025     04A4  3001               	movlw	1
  8026     04A5  160A  118A  222E  120A  118A  	fcall	_write_ds1307
  8027                           
  8028                           ;car_black_box.c: 705:             buffer = ((new_time[2] / 10) << 4) | new_time[2] % 10
      +                          ;
  8029     04AA  300A               	movlw	10
  8030     04AB  1283               	bcf	3,5	;RP0=0, select bank0
  8031     04AC  1303               	bcf	3,6	;RP1=0, select bank0
  8032     04AD  00C8               	movwf	___lwmod@divisor
  8033     04AE  3000               	movlw	0
  8034     04AF  00C9               	movwf	___lwmod@divisor+1
  8035     04B0  0825               	movf	change_time@new_time+5,w
  8036     04B1  00CB               	movwf	___lwmod@dividend+1
  8037     04B2  0824               	movf	change_time@new_time+4,w
  8038     04B3  00CA               	movwf	___lwmod@dividend
  8039     04B4  160A  118A  246E  120A  118A  	fcall	___lwmod
  8040     04B9  1283               	bcf	3,5	;RP0=0, select bank0
  8041     04BA  1303               	bcf	3,6	;RP1=0, select bank0
  8042     04BB  0848               	movf	?___lwmod,w
  8043     04BC  00D0               	movwf	??_change_time
  8044     04BD  0849               	movf	?___lwmod+1,w
  8045     04BE  00D1               	movwf	??_change_time+1
  8046     04BF  300A               	movlw	10
  8047     04C0  00F6               	movwf	___lwdiv@divisor
  8048     04C1  3000               	movlw	0
  8049     04C2  00F7               	movwf	___lwdiv@divisor+1
  8050     04C3  0825               	movf	change_time@new_time+5,w
  8051     04C4  00F9               	movwf	___lwdiv@dividend+1
  8052     04C5  0824               	movf	change_time@new_time+4,w
  8053     04C6  00F8               	movwf	___lwdiv@dividend
  8054     04C7  160A  118A  2565  120A  118A  	fcall	___lwdiv
  8055     04CC  0876               	movf	?___lwdiv,w
  8056     04CD  1283               	bcf	3,5	;RP0=0, select bank0
  8057     04CE  1303               	bcf	3,6	;RP1=0, select bank0
  8058     04CF  00D2               	movwf	??_change_time+2
  8059     04D0  3003               	movlw	3
  8060     04D1                     u4645:
  8061     04D1  1003               	clrc
  8062     04D2  0DD2               	rlf	??_change_time+2,f
  8063     04D3  3EFF               	addlw	-1
  8064     04D4  1D03               	skipz
  8065     04D5  2CD1               	goto	u4645
  8066     04D6  1003               	clrc
  8067     04D7  0D52               	rlf	??_change_time+2,w
  8068     04D8  0450               	iorwf	??_change_time,w
  8069     04D9  00D4               	movwf	change_time@buffer
  8070     04DA                     l4656:
  8071                           
  8072                           ;car_black_box.c: 706:             clock_reg[2] = (clock_reg[2] & 0x80) | buffer;
  8073     04DA  0828               	movf	_clock_reg+2,w
  8074     04DB  3980               	andlw	128
  8075     04DC  0454               	iorwf	change_time@buffer,w
  8076     04DD  00A8               	movwf	_clock_reg+2
  8077     04DE                     l4658:
  8078                           
  8079                           ;car_black_box.c: 707:             write_ds1307(0x00, clock_reg[2]);
  8080     04DE  0828               	movf	_clock_reg+2,w
  8081     04DF  00F3               	movwf	write_ds1307@data
  8082     04E0  3000               	movlw	0
  8083     04E1  160A  118A  222E  120A  118A  	fcall	_write_ds1307
  8084     04E6                     l4660:
  8085                           
  8086                           ;car_black_box.c: 710:             clcd_write(0x01, 0);
  8087     04E6  01F2               	clrf	clcd_write@mode
  8088     04E7  3001               	movlw	1
  8089     04E8  160A  118A  224C  120A  118A  	fcall	_clcd_write
  8090     04ED                     l4662:
  8091                           
  8092                           ;car_black_box.c: 711:             clcd_print("Time changed", (0x80 + 2));
  8093     04ED  3062               	movlw	low (STR_50| (0+32768))
  8094     04EE  00F6               	movwf	clcd_print@str
  8095     04EF  3088               	movlw	high (STR_50| (0+32768))
  8096     04F0  00F7               	movwf	clcd_print@str+1
  8097     04F1  3082               	movlw	130
  8098     04F2  00F8               	movwf	clcd_print@addr
  8099     04F3  160A  118A  23A5  120A  118A  	fcall	_clcd_print
  8100     04F8                     l4664:
  8101                           
  8102                           ;car_black_box.c: 712:             clcd_print("Successfully", (0xC0 + 2));
  8103     04F8  3089               	movlw	low (STR_51| (0+32768))
  8104     04F9  00F6               	movwf	clcd_print@str
  8105     04FA  3088               	movlw	high (STR_51| (0+32768))
  8106     04FB  00F7               	movwf	clcd_print@str+1
  8107     04FC  30C2               	movlw	194
  8108     04FD  00F8               	movwf	clcd_print@addr
  8109     04FE  160A  118A  23A5  120A  118A  	fcall	_clcd_print
  8110     0503                     l4666:
  8111                           
  8112                           ;car_black_box.c: 714:             t_done = 1;
  8113     0503  3001               	movlw	1
  8114     0504  1283               	bcf	3,5	;RP0=0, select bank0
  8115     0505  1303               	bcf	3,6	;RP1=0, select bank0
  8116     0506  00B8               	movwf	change_time@t_done
  8117     0507                     l4668:
  8118                           
  8119                           ;car_black_box.c: 715:             _delay((unsigned long)((1000)*(20000000/4000.0)));
  8120     0507  301A               	movlw	26
  8121     0508  1283               	bcf	3,5	;RP0=0, select bank0
  8122     0509  1303               	bcf	3,6	;RP1=0, select bank0
  8123     050A  00D2               	movwf	??_change_time+2
  8124     050B  305E               	movlw	94
  8125     050C  00D1               	movwf	??_change_time+1
  8126     050D  306D               	movlw	109
  8127     050E  00D0               	movwf	??_change_time
  8128     050F                     u5107:
  8129     050F  0BD0               	decfsz	??_change_time,f
  8130     0510  2D0F               	goto	u5107
  8131     0511  0BD1               	decfsz	??_change_time+1,f
  8132     0512  2D0F               	goto	u5107
  8133     0513  0BD2               	decfsz	??_change_time+2,f
  8134     0514  2D0F               	goto	u5107
  8135     0515  2D16               	nop2
  8136     0516                     l4670:
  8137                           
  8138                           ;car_black_box.c: 716:             return 0x0C;
  8139     0516  300C               	movlw	12
  8140     0517  2E49               	goto	l422
  8141     0518                     l4676:
  8142     0518  0853               	movf	change_time@key,w
  8143                           
  8144                           ; Switch size 1, requested type "simple"
  8145                           ; Number of cases is 3, Range of values is 47 to 128
  8146                           ; switch strategies available:
  8147                           ; Name         Instructions Cycles
  8148                           ; simple_byte           10     6 (average)
  8149                           ; direct_byte          257    11 (fixed)
  8150                           ; jumptable            263     9 (fixed)
  8151                           ;	Chosen strategy is simple_byte
  8152     0519  3A2F               	xorlw	47	; case 47
  8153     051A  1903               	skipnz
  8154     051B  2C15               	goto	l4644
  8155     051C  3A18               	xorlw	24	; case 55
  8156     051D  1903               	skipnz
  8157     051E  2C09               	goto	l4642
  8158     051F  3AB7               	xorlw	183	; case 128
  8159     0520  1903               	skipnz
  8160     0521  2C2D               	goto	l4646
  8161     0522  2D23               	goto	l4678
  8162     0523                     l4678:
  8163                           
  8164                           ;car_black_box.c: 722:     if (new_time[0] > 23)
  8165     0523  3000               	movlw	0
  8166     0524  0221               	subwf	change_time@new_time+1,w
  8167     0525  3018               	movlw	24
  8168     0526  1903               	skipnz
  8169     0527  0220               	subwf	change_time@new_time,w
  8170     0528  1C03               	skipc
  8171     0529  2D2B               	goto	u4651
  8172     052A  2D2C               	goto	u4650
  8173     052B                     u4651:
  8174     052B  2D2E               	goto	l4682
  8175     052C                     u4650:
  8176     052C                     l4680:
  8177                           
  8178                           ;car_black_box.c: 723:         new_time[0] = 0;
  8179     052C  01A0               	clrf	change_time@new_time
  8180     052D  01A1               	clrf	change_time@new_time+1
  8181     052E                     l4682:
  8182                           
  8183                           ;car_black_box.c: 724:     if (new_time[1] > 59)
  8184     052E  3000               	movlw	0
  8185     052F  0223               	subwf	change_time@new_time+3,w
  8186     0530  303C               	movlw	60
  8187     0531  1903               	skipnz
  8188     0532  0222               	subwf	change_time@new_time+2,w
  8189     0533  1C03               	skipc
  8190     0534  2D36               	goto	u4661
  8191     0535  2D37               	goto	u4660
  8192     0536                     u4661:
  8193     0536  2D39               	goto	l4686
  8194     0537                     u4660:
  8195     0537                     l4684:
  8196                           
  8197                           ;car_black_box.c: 725:         new_time[1] = 0;
  8198     0537  01A2               	clrf	change_time@new_time+2
  8199     0538  01A3               	clrf	change_time@new_time+3
  8200     0539                     l4686:
  8201                           
  8202                           ;car_black_box.c: 726:     if (new_time[2] > 59)
  8203     0539  3000               	movlw	0
  8204     053A  0225               	subwf	change_time@new_time+5,w
  8205     053B  303C               	movlw	60
  8206     053C  1903               	skipnz
  8207     053D  0224               	subwf	change_time@new_time+4,w
  8208     053E  1C03               	skipc
  8209     053F  2D41               	goto	u4671
  8210     0540  2D42               	goto	u4670
  8211     0541                     u4671:
  8212     0541  2D44               	goto	l4690
  8213     0542                     u4670:
  8214     0542                     l4688:
  8215                           
  8216                           ;car_black_box.c: 727:         new_time[2] = 0;
  8217     0542  01A4               	clrf	change_time@new_time+4
  8218     0543  01A5               	clrf	change_time@new_time+5
  8219     0544                     l4690:
  8220                           
  8221                           ;car_black_box.c: 731:     if (wait++ == 1)
  8222     0544  3001               	movlw	1
  8223     0545  07BA               	addwf	change_time@wait,f
  8224     0546  3002               	movlw	2
  8225     0547  063A               	xorwf	change_time@wait,w
  8226     0548  1D03               	btfss	3,2
  8227     0549  2D4B               	goto	u4681
  8228     054A  2D4C               	goto	u4680
  8229     054B                     u4681:
  8230     054B  2D9E               	goto	l4716
  8231     054C                     u4680:
  8232     054C                     l4692:
  8233                           
  8234                           ;car_black_box.c: 732:     {;car_black_box.c: 733:         wait = 0;
  8235     054C  01BA               	clrf	change_time@wait
  8236     054D                     l4694:
  8237                           
  8238                           ;car_black_box.c: 734:         blink = !blink;
  8239     054D  0839               	movf	change_time@blink,w
  8240     054E  1903               	btfsc	3,2
  8241     054F  2D51               	goto	u4691
  8242     0550  2D53               	goto	u4690
  8243     0551                     u4691:
  8244     0551  3001               	movlw	1
  8245     0552  2D54               	goto	u4700
  8246     0553                     u4690:
  8247     0553  3000               	movlw	0
  8248     0554                     u4700:
  8249     0554  00B9               	movwf	change_time@blink
  8250     0555                     l4696:
  8251                           
  8252                           ;car_black_box.c: 737:         if (blink)
  8253     0555  0839               	movf	change_time@blink,w
  8254     0556  1903               	btfsc	3,2
  8255     0557  2D59               	goto	u4711
  8256     0558  2D5A               	goto	u4710
  8257     0559                     u4711:
  8258     0559  2D9E               	goto	l4716
  8259     055A                     u4710:
  8260     055A  2D8E               	goto	l4714
  8261     055B                     l4700:
  8262                           
  8263                           ;car_black_box.c: 742:                     clcd_print("  ", (0xC0 + 0));
  8264     055B  3033               	movlw	low ((STR_43+15)| (0+32768))
  8265     055C  00F6               	movwf	clcd_print@str
  8266     055D  3087               	movlw	high ((STR_43+15)| (0+32768))
  8267     055E  00F7               	movwf	clcd_print@str+1
  8268     055F  30C0               	movlw	192
  8269     0560  00F8               	movwf	clcd_print@addr
  8270     0561  160A  118A  23A5  120A  118A  	fcall	_clcd_print
  8271     0566                     l4702:
  8272                           
  8273                           ;car_black_box.c: 743:                     _delay((unsigned long)((160)*(20000000/4000.0
      +                          )));
  8274     0566  3005               	movlw	5
  8275     0567  1283               	bcf	3,5	;RP0=0, select bank0
  8276     0568  1303               	bcf	3,6	;RP1=0, select bank0
  8277     0569  00D2               	movwf	??_change_time+2
  8278     056A  300F               	movlw	15
  8279     056B  00D1               	movwf	??_change_time+1
  8280     056C  30F0               	movlw	240
  8281     056D  00D0               	movwf	??_change_time
  8282     056E                     u5117:
  8283     056E  0BD0               	decfsz	??_change_time,f
  8284     056F  2D6E               	goto	u5117
  8285     0570  0BD1               	decfsz	??_change_time+1,f
  8286     0571  2D6E               	goto	u5117
  8287     0572  0BD2               	decfsz	??_change_time+2,f
  8288     0573  2D6E               	goto	u5117
  8289     0574  0000               	nop
  8290                           
  8291                           ;car_black_box.c: 744:                     break;
  8292     0575  2D9E               	goto	l4716
  8293     0576                     l4704:
  8294                           
  8295                           ;car_black_box.c: 746:                     clcd_print("  ", (0xC0 + 3));
  8296     0576  3033               	movlw	low ((STR_43+15)| (0+32768))
  8297     0577  00F6               	movwf	clcd_print@str
  8298     0578  3087               	movlw	high ((STR_43+15)| (0+32768))
  8299     0579  00F7               	movwf	clcd_print@str+1
  8300     057A  30C3               	movlw	195
  8301     057B  00F8               	movwf	clcd_print@addr
  8302     057C  160A  118A  23A5  120A  118A  	fcall	_clcd_print
  8303     0581  2D66               	goto	l4702
  8304     0582                     l4708:
  8305                           
  8306                           ;car_black_box.c: 750:                     clcd_print("  ", (0xC0 + 6));
  8307     0582  3033               	movlw	low ((STR_43+15)| (0+32768))
  8308     0583  00F6               	movwf	clcd_print@str
  8309     0584  3087               	movlw	high ((STR_43+15)| (0+32768))
  8310     0585  00F7               	movwf	clcd_print@str+1
  8311     0586  30C6               	movlw	198
  8312     0587  00F8               	movwf	clcd_print@addr
  8313     0588  160A  118A  23A5  120A  118A  	fcall	_clcd_print
  8314     058D  2D66               	goto	l4702
  8315     058E                     l4714:
  8316                           
  8317                           ; Switch on 2 bytes has been partitioned into a top level switch of size 1, and 1 sub-sw
      +                          itches
  8318                           ; Switch size 1, requested type "simple"
  8319                           ; Number of cases is 1, Range of values is 0 to 0
  8320                           ; switch strategies available:
  8321                           ; Name         Instructions Cycles
  8322                           ; simple_byte            4     3 (average)
  8323                           ; direct_byte           11     8 (fixed)
  8324                           ; jumptable            260     6 (fixed)
  8325                           ;	Chosen strategy is simple_byte
  8326     058E  082E               	movf	change_time@blink_pos+1,w
  8327     058F  3A00               	xorlw	0	; case 0
  8328     0590  1903               	skipnz
  8329     0591  2D93               	goto	l4972
  8330     0592  2D9E               	goto	l4716
  8331     0593                     l4972:
  8332                           
  8333                           ; Switch size 1, requested type "simple"
  8334                           ; Number of cases is 3, Range of values is 0 to 2
  8335                           ; switch strategies available:
  8336                           ; Name         Instructions Cycles
  8337                           ; simple_byte           10     6 (average)
  8338                           ; direct_byte           17     8 (fixed)
  8339                           ; jumptable            260     6 (fixed)
  8340                           ;	Chosen strategy is simple_byte
  8341     0593  082D               	movf	change_time@blink_pos,w
  8342     0594  3A00               	xorlw	0	; case 0
  8343     0595  1903               	skipnz
  8344     0596  2D5B               	goto	l4700
  8345     0597  3A01               	xorlw	1	; case 1
  8346     0598  1903               	skipnz
  8347     0599  2D76               	goto	l4704
  8348     059A  3A03               	xorlw	3	; case 2
  8349     059B  1903               	skipnz
  8350     059C  2D82               	goto	l4708
  8351     059D  2D9E               	goto	l4716
  8352     059E                     l4716:
  8353                           
  8354                           ;car_black_box.c: 760:     clcd_putch(new_time[0] / 10 + '0', (0xC0 + 0));
  8355     059E  30C0               	movlw	192
  8356     059F  1283               	bcf	3,5	;RP0=0, select bank0
  8357     05A0  1303               	bcf	3,6	;RP1=0, select bank0
  8358     05A1  00CD               	movwf	clcd_putch@addr
  8359     05A2  300A               	movlw	10
  8360     05A3  00F6               	movwf	___lwdiv@divisor
  8361     05A4  3000               	movlw	0
  8362     05A5  00F7               	movwf	___lwdiv@divisor+1
  8363     05A6  0821               	movf	change_time@new_time+1,w
  8364     05A7  00F9               	movwf	___lwdiv@dividend+1
  8365     05A8  0820               	movf	change_time@new_time,w
  8366     05A9  00F8               	movwf	___lwdiv@dividend
  8367     05AA  160A  118A  2565  120A  118A  	fcall	___lwdiv
  8368     05AF  0876               	movf	?___lwdiv,w
  8369     05B0  3E30               	addlw	48
  8370     05B1  160A  118A  2200  120A  118A  	fcall	_clcd_putch
  8371                           
  8372                           ;car_black_box.c: 761:     clcd_putch(new_time[0] % 10 + '0', (0xC0 + 1));
  8373     05B6  30C1               	movlw	193
  8374     05B7  1283               	bcf	3,5	;RP0=0, select bank0
  8375     05B8  1303               	bcf	3,6	;RP1=0, select bank0
  8376     05B9  00CD               	movwf	clcd_putch@addr
  8377     05BA  300A               	movlw	10
  8378     05BB  00C8               	movwf	___lwmod@divisor
  8379     05BC  3000               	movlw	0
  8380     05BD  00C9               	movwf	___lwmod@divisor+1
  8381     05BE  0821               	movf	change_time@new_time+1,w
  8382     05BF  00CB               	movwf	___lwmod@dividend+1
  8383     05C0  0820               	movf	change_time@new_time,w
  8384     05C1  00CA               	movwf	___lwmod@dividend
  8385     05C2  160A  118A  246E  120A  118A  	fcall	___lwmod
  8386     05C7  1283               	bcf	3,5	;RP0=0, select bank0
  8387     05C8  1303               	bcf	3,6	;RP1=0, select bank0
  8388     05C9  0848               	movf	?___lwmod,w
  8389     05CA  3E30               	addlw	48
  8390     05CB  160A  118A  2200  120A  118A  	fcall	_clcd_putch
  8391                           
  8392                           ;car_black_box.c: 762:     clcd_putch(':', (0xC0 + 2));
  8393     05D0  30C2               	movlw	194
  8394     05D1  1283               	bcf	3,5	;RP0=0, select bank0
  8395     05D2  1303               	bcf	3,6	;RP1=0, select bank0
  8396     05D3  00CD               	movwf	clcd_putch@addr
  8397     05D4  303A               	movlw	58
  8398     05D5  160A  118A  2200  120A  118A  	fcall	_clcd_putch
  8399                           
  8400                           ;car_black_box.c: 765:     clcd_putch(new_time[1] / 10 + '0', (0xC0 + 3));
  8401     05DA  30C3               	movlw	195
  8402     05DB  1283               	bcf	3,5	;RP0=0, select bank0
  8403     05DC  1303               	bcf	3,6	;RP1=0, select bank0
  8404     05DD  00CD               	movwf	clcd_putch@addr
  8405     05DE  300A               	movlw	10
  8406     05DF  00F6               	movwf	___lwdiv@divisor
  8407     05E0  3000               	movlw	0
  8408     05E1  00F7               	movwf	___lwdiv@divisor+1
  8409     05E2  0823               	movf	change_time@new_time+3,w
  8410     05E3  00F9               	movwf	___lwdiv@dividend+1
  8411     05E4  0822               	movf	change_time@new_time+2,w
  8412     05E5  00F8               	movwf	___lwdiv@dividend
  8413     05E6  160A  118A  2565  120A  118A  	fcall	___lwdiv
  8414     05EB  0876               	movf	?___lwdiv,w
  8415     05EC  3E30               	addlw	48
  8416     05ED  160A  118A  2200  120A  118A  	fcall	_clcd_putch
  8417                           
  8418                           ;car_black_box.c: 766:     clcd_putch(new_time[1] % 10 + '0', (0xC0 + 4));
  8419     05F2  30C4               	movlw	196
  8420     05F3  1283               	bcf	3,5	;RP0=0, select bank0
  8421     05F4  1303               	bcf	3,6	;RP1=0, select bank0
  8422     05F5  00CD               	movwf	clcd_putch@addr
  8423     05F6  300A               	movlw	10
  8424     05F7  00C8               	movwf	___lwmod@divisor
  8425     05F8  3000               	movlw	0
  8426     05F9  00C9               	movwf	___lwmod@divisor+1
  8427     05FA  0823               	movf	change_time@new_time+3,w
  8428     05FB  00CB               	movwf	___lwmod@dividend+1
  8429     05FC  0822               	movf	change_time@new_time+2,w
  8430     05FD  00CA               	movwf	___lwmod@dividend
  8431     05FE  160A  118A  246E  120A  118A  	fcall	___lwmod
  8432     0603  1283               	bcf	3,5	;RP0=0, select bank0
  8433     0604  1303               	bcf	3,6	;RP1=0, select bank0
  8434     0605  0848               	movf	?___lwmod,w
  8435     0606  3E30               	addlw	48
  8436     0607  160A  118A  2200  120A  118A  	fcall	_clcd_putch
  8437                           
  8438                           ;car_black_box.c: 767:     clcd_putch(':', (0xC0 + 5));
  8439     060C  30C5               	movlw	197
  8440     060D  1283               	bcf	3,5	;RP0=0, select bank0
  8441     060E  1303               	bcf	3,6	;RP1=0, select bank0
  8442     060F  00CD               	movwf	clcd_putch@addr
  8443     0610  303A               	movlw	58
  8444     0611  160A  118A  2200  120A  118A  	fcall	_clcd_putch
  8445                           
  8446                           ;car_black_box.c: 770:     clcd_putch(new_time[2] / 10 + '0', (0xC0 + 6));
  8447     0616  30C6               	movlw	198
  8448     0617  1283               	bcf	3,5	;RP0=0, select bank0
  8449     0618  1303               	bcf	3,6	;RP1=0, select bank0
  8450     0619  00CD               	movwf	clcd_putch@addr
  8451     061A  300A               	movlw	10
  8452     061B  00F6               	movwf	___lwdiv@divisor
  8453     061C  3000               	movlw	0
  8454     061D  00F7               	movwf	___lwdiv@divisor+1
  8455     061E  0825               	movf	change_time@new_time+5,w
  8456     061F  00F9               	movwf	___lwdiv@dividend+1
  8457     0620  0824               	movf	change_time@new_time+4,w
  8458     0621  00F8               	movwf	___lwdiv@dividend
  8459     0622  160A  118A  2565  120A  118A  	fcall	___lwdiv
  8460     0627  0876               	movf	?___lwdiv,w
  8461     0628  3E30               	addlw	48
  8462     0629  160A  118A  2200  120A  118A  	fcall	_clcd_putch
  8463                           
  8464                           ;car_black_box.c: 771:     clcd_putch(new_time[2] % 10 + '0', (0xC0 + 7));
  8465     062E  30C7               	movlw	199
  8466     062F  1283               	bcf	3,5	;RP0=0, select bank0
  8467     0630  1303               	bcf	3,6	;RP1=0, select bank0
  8468     0631  00CD               	movwf	clcd_putch@addr
  8469     0632  300A               	movlw	10
  8470     0633  00C8               	movwf	___lwmod@divisor
  8471     0634  3000               	movlw	0
  8472     0635  00C9               	movwf	___lwmod@divisor+1
  8473     0636  0825               	movf	change_time@new_time+5,w
  8474     0637  00CB               	movwf	___lwmod@dividend+1
  8475     0638  0824               	movf	change_time@new_time+4,w
  8476     0639  00CA               	movwf	___lwmod@dividend
  8477     063A  160A  118A  246E  120A  118A  	fcall	___lwmod
  8478     063F  1283               	bcf	3,5	;RP0=0, select bank0
  8479     0640  1303               	bcf	3,6	;RP1=0, select bank0
  8480     0641  0848               	movf	?___lwmod,w
  8481     0642  3E30               	addlw	48
  8482     0643  160A  118A  2200  120A  118A  	fcall	_clcd_putch
  8483     0648  2C07               	goto	l4638
  8484     0649                     l422:
  8485     0649  0008               	return
  8486     064A                     __end_of_change_time:
  8487                           
  8488                           	psect	text31
  8489     122E                     __ptext31:	
  8490 ;; *************** function _write_ds1307 *****************
  8491 ;; Defined at:
  8492 ;;		line 29 in file "ds1307.c"
  8493 ;; Parameters:    Size  Location     Type
  8494 ;;  addr            1    wreg     unsigned char 
  8495 ;;  data            1    3[COMMON] unsigned char 
  8496 ;; Auto vars:     Size  Location     Type
  8497 ;;  addr            1    4[COMMON] unsigned char 
  8498 ;; Return value:  Size  Location     Type
  8499 ;;                  1    wreg      void 
  8500 ;; Registers used:
  8501 ;;		wreg, status,2, status,0, pclath, cstack
  8502 ;; Tracked objects:
  8503 ;;		On entry : 0/0
  8504 ;;		On exit  : 0/0
  8505 ;;		Unchanged: 0/0
  8506 ;; Data sizes:     COMMON   BANK0   BANK1   BANK3   BANK2
  8507 ;;      Params:         1       0       0       0       0
  8508 ;;      Locals:         1       0       0       0       0
  8509 ;;      Temps:          0       0       0       0       0
  8510 ;;      Totals:         2       0       0       0       0
  8511 ;;Total ram usage:        2 bytes
  8512 ;; Hardware stack levels used: 1
  8513 ;; Hardware stack levels required when called: 3
  8514 ;; This function calls:
  8515 ;;		_i2c_start
  8516 ;;		_i2c_stop
  8517 ;;		_i2c_write
  8518 ;; This function is called by:
  8519 ;;		_init_ds1307
  8520 ;;		_change_time
  8521 ;; This function uses a non-reentrant model
  8522 ;;
  8523                           
  8524     122E                     _write_ds1307:	
  8525                           ;psect for function _write_ds1307
  8526                           
  8527                           
  8528                           ;incstack = 0
  8529                           ; Regs used in _write_ds1307: [wreg+status,2+status,0+pclath+cstack]
  8530                           ;write_ds1307@addr stored from wreg
  8531     122E  00F4               	movwf	write_ds1307@addr
  8532     122F                     l3776:
  8533                           
  8534                           ;ds1307.c: 29: void write_ds1307(unsigned char addr, unsigned char data);ds1307.c: 30: {
      +                          ;ds1307.c: 31:     i2c_start();
  8535     122F  160A  118A  214D  160A  118A  	fcall	_i2c_start
  8536                           
  8537                           ;ds1307.c: 32:     i2c_write(0b11010000);
  8538     1234  30D0               	movlw	208
  8539     1235  160A  118A  215F  160A  118A  	fcall	_i2c_write
  8540                           
  8541                           ;ds1307.c: 33:     i2c_write(addr);
  8542     123A  0874               	movf	write_ds1307@addr,w
  8543     123B  160A  118A  215F  160A  118A  	fcall	_i2c_write
  8544                           
  8545                           ;ds1307.c: 34:     i2c_write(data);
  8546     1240  0873               	movf	write_ds1307@data,w
  8547     1241  160A  118A  215F  160A  118A  	fcall	_i2c_write
  8548                           
  8549                           ;ds1307.c: 35:     i2c_stop();
  8550     1246  160A  118A  2156  160A  118A  	fcall	_i2c_stop
  8551     124B                     l55:
  8552     124B  0008               	return
  8553     124C                     __end_of_write_ds1307:
  8554                           
  8555                           	psect	text32
  8556     15F4                     __ptext32:	
  8557 ;; *************** function _get_time *****************
  8558 ;; Defined at:
  8559 ;;		line 26 in file "car_black_box.c"
  8560 ;; Parameters:    Size  Location     Type
  8561 ;;		None
  8562 ;; Auto vars:     Size  Location     Type
  8563 ;;		None
  8564 ;; Return value:  Size  Location     Type
  8565 ;;                  1    wreg      void 
  8566 ;; Registers used:
  8567 ;;		wreg, status,2, status,0, pclath, cstack
  8568 ;; Tracked objects:
  8569 ;;		On entry : 0/0
  8570 ;;		On exit  : 0/0
  8571 ;;		Unchanged: 0/0
  8572 ;; Data sizes:     COMMON   BANK0   BANK1   BANK3   BANK2
  8573 ;;      Params:         0       0       0       0       0
  8574 ;;      Locals:         0       0       0       0       0
  8575 ;;      Temps:          1       0       0       0       0
  8576 ;;      Totals:         1       0       0       0       0
  8577 ;;Total ram usage:        1 bytes
  8578 ;; Hardware stack levels used: 1
  8579 ;; Hardware stack levels required when called: 5
  8580 ;; This function calls:
  8581 ;;		_read_ds1307
  8582 ;; This function is called by:
  8583 ;;		_display_time
  8584 ;;		_log_car_event
  8585 ;;		_change_time
  8586 ;; This function uses a non-reentrant model
  8587 ;;
  8588                           
  8589     15F4                     _get_time:	
  8590                           ;psect for function _get_time
  8591                           
  8592     15F4                     l3788:	
  8593                           ;incstack = 0
  8594                           ; Regs used in _get_time: [wreg+status,2+status,0+pclath+cstack]
  8595                           
  8596                           
  8597                           ;car_black_box.c: 29:     clock_reg[0] = read_ds1307(0x02);
  8598     15F4  3002               	movlw	2
  8599     15F5  160A  118A  2324  160A  118A  	fcall	_read_ds1307
  8600     15FA  1283               	bcf	3,5	;RP0=0, select bank0
  8601     15FB  1303               	bcf	3,6	;RP1=0, select bank0
  8602     15FC  00A6               	movwf	_clock_reg
  8603                           
  8604                           ;car_black_box.c: 32:     clock_reg[1] = read_ds1307(0x01);
  8605     15FD  3001               	movlw	1
  8606     15FE  160A  118A  2324  160A  118A  	fcall	_read_ds1307
  8607     1603  1283               	bcf	3,5	;RP0=0, select bank0
  8608     1604  1303               	bcf	3,6	;RP1=0, select bank0
  8609     1605  00A7               	movwf	_clock_reg+1
  8610                           
  8611                           ;car_black_box.c: 35:     clock_reg[2] = read_ds1307(0x00);
  8612     1606  3000               	movlw	0
  8613     1607  160A  118A  2324  160A  118A  	fcall	_read_ds1307
  8614     160C  1283               	bcf	3,5	;RP0=0, select bank0
  8615     160D  1303               	bcf	3,6	;RP1=0, select bank0
  8616     160E  00A8               	movwf	_clock_reg+2
  8617     160F                     l3790:
  8618                           
  8619                           ;car_black_box.c: 38:     time[0] = ((clock_reg[0] >> 4) & 0x03) + '0';
  8620     160F  0826               	movf	_clock_reg,w
  8621     1610  00F6               	movwf	??_get_time
  8622     1611  3004               	movlw	4
  8623     1612                     u3375:
  8624     1612  1003               	clrc
  8625     1613  0CF6               	rrf	??_get_time,f
  8626     1614  3EFF               	addlw	-1
  8627     1615  1D03               	skipz
  8628     1616  2E12               	goto	u3375
  8629     1617  0876               	movf	??_get_time,w
  8630     1618  3903               	andlw	3
  8631     1619  3E30               	addlw	48
  8632     161A  00BE               	movwf	_time
  8633     161B                     l3792:
  8634                           
  8635                           ;car_black_box.c: 39:     time[1] = (clock_reg[0] & 0x0F) + '0';
  8636     161B  0826               	movf	_clock_reg,w
  8637     161C  390F               	andlw	15
  8638     161D  3E30               	addlw	48
  8639     161E  00BF               	movwf	_time+1
  8640     161F                     l3794:
  8641                           
  8642                           ;car_black_box.c: 42:     time[2] = ((clock_reg[1] >> 4) & 0x07) + '0';
  8643     161F  0827               	movf	_clock_reg+1,w
  8644     1620  00F6               	movwf	??_get_time
  8645     1621  3004               	movlw	4
  8646     1622                     u3385:
  8647     1622  1003               	clrc
  8648     1623  0CF6               	rrf	??_get_time,f
  8649     1624  3EFF               	addlw	-1
  8650     1625  1D03               	skipz
  8651     1626  2E22               	goto	u3385
  8652     1627  0876               	movf	??_get_time,w
  8653     1628  3907               	andlw	7
  8654     1629  3E30               	addlw	48
  8655     162A  00C0               	movwf	_time+2
  8656     162B                     l3796:
  8657                           
  8658                           ;car_black_box.c: 43:     time[3] = (clock_reg[1] & 0x0F) + '0';
  8659     162B  0827               	movf	_clock_reg+1,w
  8660     162C  390F               	andlw	15
  8661     162D  3E30               	addlw	48
  8662     162E  00C1               	movwf	_time+3
  8663     162F                     l3798:
  8664                           
  8665                           ;car_black_box.c: 46:     time[4] = ((clock_reg[2] >> 4) & 0x07) + '0';
  8666     162F  0828               	movf	_clock_reg+2,w
  8667     1630  00F6               	movwf	??_get_time
  8668     1631  3004               	movlw	4
  8669     1632                     u3395:
  8670     1632  1003               	clrc
  8671     1633  0CF6               	rrf	??_get_time,f
  8672     1634  3EFF               	addlw	-1
  8673     1635  1D03               	skipz
  8674     1636  2E32               	goto	u3395
  8675     1637  0876               	movf	??_get_time,w
  8676     1638  3907               	andlw	7
  8677     1639  3E30               	addlw	48
  8678     163A  00C2               	movwf	_time+4
  8679     163B                     l3800:
  8680                           
  8681                           ;car_black_box.c: 47:     time[5] = (clock_reg[2] & 0x0F) + '0';
  8682     163B  0828               	movf	_clock_reg+2,w
  8683     163C  390F               	andlw	15
  8684     163D  3E30               	addlw	48
  8685     163E  00C3               	movwf	_time+5
  8686     163F                     l3802:
  8687                           
  8688                           ;car_black_box.c: 48:     time[6] = '\0';
  8689     163F  01C4               	clrf	_time+6
  8690     1640                     l293:
  8691     1640  0008               	return
  8692     1641                     __end_of_get_time:
  8693                           
  8694                           	psect	text33
  8695     1324                     __ptext33:	
  8696 ;; *************** function _read_ds1307 *****************
  8697 ;; Defined at:
  8698 ;;		line 14 in file "ds1307.c"
  8699 ;; Parameters:    Size  Location     Type
  8700 ;;  addr            1    wreg     unsigned char 
  8701 ;; Auto vars:     Size  Location     Type
  8702 ;;  addr            1    4[COMMON] unsigned char 
  8703 ;;  data            1    5[COMMON] unsigned char 
  8704 ;; Return value:  Size  Location     Type
  8705 ;;                  1    wreg      unsigned char 
  8706 ;; Registers used:
  8707 ;;		wreg, status,2, status,0, pclath, cstack
  8708 ;; Tracked objects:
  8709 ;;		On entry : 0/0
  8710 ;;		On exit  : 0/0
  8711 ;;		Unchanged: 0/0
  8712 ;; Data sizes:     COMMON   BANK0   BANK1   BANK3   BANK2
  8713 ;;      Params:         0       0       0       0       0
  8714 ;;      Locals:         2       0       0       0       0
  8715 ;;      Temps:          0       0       0       0       0
  8716 ;;      Totals:         2       0       0       0       0
  8717 ;;Total ram usage:        2 bytes
  8718 ;; Hardware stack levels used: 1
  8719 ;; Hardware stack levels required when called: 4
  8720 ;; This function calls:
  8721 ;;		_i2c_read
  8722 ;;		_i2c_rep_start
  8723 ;;		_i2c_start
  8724 ;;		_i2c_stop
  8725 ;;		_i2c_write
  8726 ;; This function is called by:
  8727 ;;		_init_ds1307
  8728 ;;		_get_time
  8729 ;; This function uses a non-reentrant model
  8730 ;;
  8731                           
  8732     1324                     _read_ds1307:	
  8733                           ;psect for function _read_ds1307
  8734                           
  8735                           
  8736                           ;incstack = 0
  8737                           ; Regs used in _read_ds1307: [wreg+status,2+status,0+pclath+cstack]
  8738                           ;read_ds1307@addr stored from wreg
  8739     1324  00F4               	movwf	read_ds1307@addr
  8740     1325                     l3744:
  8741                           
  8742                           ;ds1307.c: 14: unsigned char read_ds1307(unsigned char addr);ds1307.c: 15: {;ds1307.c: 1
      +                          6:     unsigned char data;;ds1307.c: 18:     i2c_start();
  8743     1325  160A  118A  214D  160A  118A  	fcall	_i2c_start
  8744                           
  8745                           ;ds1307.c: 19:     i2c_write(0b11010000);
  8746     132A  30D0               	movlw	208
  8747     132B  160A  118A  215F  160A  118A  	fcall	_i2c_write
  8748                           
  8749                           ;ds1307.c: 20:     i2c_write(addr);
  8750     1330  0874               	movf	read_ds1307@addr,w
  8751     1331  160A  118A  215F  160A  118A  	fcall	_i2c_write
  8752                           
  8753                           ;ds1307.c: 21:     i2c_rep_start();
  8754     1336  160A  118A  216A  160A  118A  	fcall	_i2c_rep_start
  8755                           
  8756                           ;ds1307.c: 22:     i2c_write(0b11010001);
  8757     133B  30D1               	movlw	209
  8758     133C  160A  118A  215F  160A  118A  	fcall	_i2c_write
  8759                           
  8760                           ;ds1307.c: 23:     data = i2c_read(0);
  8761     1341  3000               	movlw	0
  8762     1342  160A  118A  226C  160A  118A  	fcall	_i2c_read
  8763     1347  00F5               	movwf	read_ds1307@data
  8764                           
  8765                           ;ds1307.c: 24:     i2c_stop();
  8766     1348  160A  118A  2156  160A  118A  	fcall	_i2c_stop
  8767     134D                     l3746:
  8768                           
  8769                           ;ds1307.c: 26:     return data;
  8770     134D  0875               	movf	read_ds1307@data,w
  8771     134E                     l52:
  8772     134E  0008               	return
  8773     134F                     __end_of_read_ds1307:
  8774                           
  8775                           	psect	text34
  8776     116A                     __ptext34:	
  8777 ;; *************** function _i2c_rep_start *****************
  8778 ;; Defined at:
  8779 ;;		line 28 in file "i2c.c"
  8780 ;; Parameters:    Size  Location     Type
  8781 ;;		None
  8782 ;; Auto vars:     Size  Location     Type
  8783 ;;		None
  8784 ;; Return value:  Size  Location     Type
  8785 ;;                  1    wreg      void 
  8786 ;; Registers used:
  8787 ;;		wreg, status,2, status,0, pclath, cstack
  8788 ;; Tracked objects:
  8789 ;;		On entry : 0/0
  8790 ;;		On exit  : 0/0
  8791 ;;		Unchanged: 0/0
  8792 ;; Data sizes:     COMMON   BANK0   BANK1   BANK3   BANK2
  8793 ;;      Params:         0       0       0       0       0
  8794 ;;      Locals:         0       0       0       0       0
  8795 ;;      Temps:          0       0       0       0       0
  8796 ;;      Totals:         0       0       0       0       0
  8797 ;;Total ram usage:        0 bytes
  8798 ;; Hardware stack levels used: 1
  8799 ;; Hardware stack levels required when called: 3
  8800 ;; This function calls:
  8801 ;;		_i2c_start
  8802 ;;		_i2c_stop
  8803 ;; This function is called by:
  8804 ;;		_read_ds1307
  8805 ;;		_eeprom_at24c04_random_read
  8806 ;; This function uses a non-reentrant model
  8807 ;;
  8808                           
  8809     116A                     _i2c_rep_start:	
  8810                           ;psect for function _i2c_rep_start
  8811                           
  8812     116A                     l3720:	
  8813                           ;incstack = 0
  8814                           ; Regs used in _i2c_rep_start: [wreg+status,2+status,0+pclath+cstack]
  8815                           
  8816                           
  8817                           ;i2c.c: 30:     i2c_stop();
  8818     116A  160A  118A  2156  160A  118A  	fcall	_i2c_stop
  8819                           
  8820                           ;i2c.c: 31:     i2c_start();
  8821     116F  160A  118A  214D  160A  118A  	fcall	_i2c_start
  8822     1174                     l96:
  8823     1174  0008               	return
  8824     1175                     __end_of_i2c_rep_start:
  8825                           
  8826                           	psect	text35
  8827     126C                     __ptext35:	
  8828 ;; *************** function _i2c_read *****************
  8829 ;; Defined at:
  8830 ;;		line 41 in file "i2c.c"
  8831 ;; Parameters:    Size  Location     Type
  8832 ;;  ack             1    wreg     unsigned char 
  8833 ;; Auto vars:     Size  Location     Type
  8834 ;;  ack             1    2[COMMON] unsigned char 
  8835 ;;  data            1    3[COMMON] unsigned char 
  8836 ;; Return value:  Size  Location     Type
  8837 ;;                  1    wreg      unsigned char 
  8838 ;; Registers used:
  8839 ;;		wreg, status,2, status,0, pclath, cstack
  8840 ;; Tracked objects:
  8841 ;;		On entry : 0/0
  8842 ;;		On exit  : 0/0
  8843 ;;		Unchanged: 0/0
  8844 ;; Data sizes:     COMMON   BANK0   BANK1   BANK3   BANK2
  8845 ;;      Params:         0       0       0       0       0
  8846 ;;      Locals:         2       0       0       0       0
  8847 ;;      Temps:          0       0       0       0       0
  8848 ;;      Totals:         2       0       0       0       0
  8849 ;;Total ram usage:        2 bytes
  8850 ;; Hardware stack levels used: 1
  8851 ;; Hardware stack levels required when called: 2
  8852 ;; This function calls:
  8853 ;;		_i2c_wait_for_idle
  8854 ;; This function is called by:
  8855 ;;		_read_ds1307
  8856 ;;		_eeprom_at24c04_random_read
  8857 ;; This function uses a non-reentrant model
  8858 ;;
  8859                           
  8860     126C                     _i2c_read:	
  8861                           ;psect for function _i2c_read
  8862                           
  8863                           
  8864                           ;incstack = 0
  8865                           ; Regs used in _i2c_read: [wreg+status,2+status,0+pclath+cstack]
  8866                           ;i2c_read@ack stored from wreg
  8867     126C  00F2               	movwf	i2c_read@ack
  8868     126D                     l3722:
  8869                           
  8870                           ;i2c.c: 41: unsigned char i2c_read(unsigned char ack);i2c.c: 42: {;i2c.c: 43:     unsign
      +                          ed char data;;i2c.c: 45:     i2c_wait_for_idle();
  8871     126D  160A  118A  218B  160A  118A  	fcall	_i2c_wait_for_idle
  8872     1272                     l3724:
  8873                           
  8874                           ;i2c.c: 46:     RCEN = 1;
  8875     1272  1683               	bsf	3,5	;RP0=1, select bank1
  8876     1273  1303               	bcf	3,6	;RP1=0, select bank1
  8877     1274  1591               	bsf	17,3	;volatile
  8878                           
  8879                           ;i2c.c: 48:     i2c_wait_for_idle();
  8880     1275  160A  118A  218B  160A  118A  	fcall	_i2c_wait_for_idle
  8881     127A                     l3726:
  8882                           
  8883                           ;i2c.c: 49:     data = SSPBUF;
  8884     127A  1283               	bcf	3,5	;RP0=0, select bank0
  8885     127B  1303               	bcf	3,6	;RP1=0, select bank0
  8886     127C  0813               	movf	19,w	;volatile
  8887     127D  00F3               	movwf	i2c_read@data
  8888     127E                     l3728:
  8889                           
  8890                           ;i2c.c: 51:     if (ack == 1)
  8891     127E  0372               	decf	i2c_read@ack,w
  8892     127F  1D03               	btfss	3,2
  8893     1280  2A82               	goto	u3331
  8894     1281  2A83               	goto	u3330
  8895     1282                     u3331:
  8896     1282  2A87               	goto	l102
  8897     1283                     u3330:
  8898     1283                     l3730:
  8899                           
  8900                           ;i2c.c: 52:     {;i2c.c: 53:         ACKDT = 1;
  8901     1283  1683               	bsf	3,5	;RP0=1, select bank1
  8902     1284  1303               	bcf	3,6	;RP1=0, select bank1
  8903     1285  1691               	bsf	17,5	;volatile
  8904                           
  8905                           ;i2c.c: 54:     }
  8906     1286  2A8A               	goto	l103
  8907     1287                     l102:	
  8908                           ;i2c.c: 55:     else
  8909                           
  8910                           
  8911                           ;i2c.c: 56:     {;i2c.c: 57:         ACKDT = 0;
  8912     1287  1683               	bsf	3,5	;RP0=1, select bank1
  8913     1288  1303               	bcf	3,6	;RP1=0, select bank1
  8914     1289  1291               	bcf	17,5	;volatile
  8915     128A                     l103:	
  8916                           ;i2c.c: 58:     }
  8917                           
  8918                           
  8919                           ;i2c.c: 60:     ACKEN = 1;
  8920     128A  1611               	bsf	17,4	;volatile
  8921     128B                     l3732:
  8922                           
  8923                           ;i2c.c: 62:     return data;
  8924     128B  0873               	movf	i2c_read@data,w
  8925     128C                     l104:
  8926     128C  0008               	return
  8927     128D                     __end_of_i2c_read:
  8928                           
  8929                           	psect	text36
  8930     12AE                     __ptext36:	
  8931 ;; *************** function ___wmul *****************
  8932 ;; Defined at:
  8933 ;;		line 15 in file "C:\Program Files\Microchip\xc8\v2.50\pic\sources\c99\common\Umul16.c"
  8934 ;; Parameters:    Size  Location     Type
  8935 ;;  multiplier      2    2[COMMON] unsigned int 
  8936 ;;  multiplicand    2    4[COMMON] unsigned int 
  8937 ;; Auto vars:     Size  Location     Type
  8938 ;;  product         2    6[COMMON] unsigned int 
  8939 ;; Return value:  Size  Location     Type
  8940 ;;                  2    2[COMMON] unsigned int 
  8941 ;; Registers used:
  8942 ;;		wreg, status,2, status,0
  8943 ;; Tracked objects:
  8944 ;;		On entry : 0/0
  8945 ;;		On exit  : 0/0
  8946 ;;		Unchanged: 0/0
  8947 ;; Data sizes:     COMMON   BANK0   BANK1   BANK3   BANK2
  8948 ;;      Params:         4       0       0       0       0
  8949 ;;      Locals:         2       0       0       0       0
  8950 ;;      Temps:          0       0       0       0       0
  8951 ;;      Totals:         6       0       0       0       0
  8952 ;;Total ram usage:        6 bytes
  8953 ;; Hardware stack levels used: 1
  8954 ;; Hardware stack levels required when called: 1
  8955 ;; This function calls:
  8956 ;;		Nothing
  8957 ;; This function is called by:
  8958 ;;		_change_time
  8959 ;; This function uses a non-reentrant model
  8960 ;;
  8961                           
  8962     12AE                     ___wmul:	
  8963                           ;psect for function ___wmul
  8964                           
  8965     12AE                     l3970:	
  8966                           ;incstack = 0
  8967                           ; Regs used in ___wmul: [wreg+status,2+status,0]
  8968                           
  8969     12AE  01F6               	clrf	___wmul@product
  8970     12AF  01F7               	clrf	___wmul@product+1
  8971     12B0                     l3972:
  8972     12B0  1C72               	btfss	___wmul@multiplier,0
  8973     12B1  2AB3               	goto	u3641
  8974     12B2  2AB4               	goto	u3640
  8975     12B3                     u3641:
  8976     12B3  2ABA               	goto	l637
  8977     12B4                     u3640:
  8978     12B4                     l3974:
  8979     12B4  0874               	movf	___wmul@multiplicand,w
  8980     12B5  07F6               	addwf	___wmul@product,f
  8981     12B6  1803               	skipnc
  8982     12B7  0AF7               	incf	___wmul@product+1,f
  8983     12B8  0875               	movf	___wmul@multiplicand+1,w
  8984     12B9  07F7               	addwf	___wmul@product+1,f
  8985     12BA                     l637:
  8986     12BA  3001               	movlw	1
  8987     12BB                     u3655:
  8988     12BB  1003               	clrc
  8989     12BC  0DF4               	rlf	___wmul@multiplicand,f
  8990     12BD  0DF5               	rlf	___wmul@multiplicand+1,f
  8991     12BE  3EFF               	addlw	-1
  8992     12BF  1D03               	skipz
  8993     12C0  2ABB               	goto	u3655
  8994     12C1                     l3976:
  8995     12C1  3001               	movlw	1
  8996     12C2                     u3665:
  8997     12C2  1003               	clrc
  8998     12C3  0CF3               	rrf	___wmul@multiplier+1,f
  8999     12C4  0CF2               	rrf	___wmul@multiplier,f
  9000     12C5  3EFF               	addlw	-1
  9001     12C6  1D03               	skipz
  9002     12C7  2AC2               	goto	u3665
  9003     12C8                     l3978:
  9004     12C8  0872               	movf	___wmul@multiplier,w
  9005     12C9  0473               	iorwf	___wmul@multiplier+1,w
  9006     12CA  1D03               	btfss	3,2
  9007     12CB  2ACD               	goto	u3671
  9008     12CC  2ACE               	goto	u3670
  9009     12CD                     u3671:
  9010     12CD  2AB0               	goto	l3972
  9011     12CE                     u3670:
  9012     12CE                     l3980:
  9013     12CE  0877               	movf	___wmul@product+1,w
  9014     12CF  00F3               	movwf	?___wmul+1
  9015     12D0  0876               	movf	___wmul@product,w
  9016     12D1  00F2               	movwf	?___wmul
  9017     12D2                     l639:
  9018     12D2  0008               	return
  9019     12D3                     __end_of___wmul:
  9020                           
  9021                           	psect	text37
  9022     146E                     __ptext37:	
  9023 ;; *************** function ___lwmod *****************
  9024 ;; Defined at:
  9025 ;;		line 5 in file "C:\Program Files\Microchip\xc8\v2.50\pic\sources\c99\common\lwmod.c"
  9026 ;; Parameters:    Size  Location     Type
  9027 ;;  divisor         2    3[BANK0 ] unsigned int 
  9028 ;;  dividend        2    5[BANK0 ] unsigned int 
  9029 ;; Auto vars:     Size  Location     Type
  9030 ;;  counter         1    7[BANK0 ] unsigned char 
  9031 ;; Return value:  Size  Location     Type
  9032 ;;                  2    3[BANK0 ] unsigned int 
  9033 ;; Registers used:
  9034 ;;		wreg, status,2, status,0
  9035 ;; Tracked objects:
  9036 ;;		On entry : 0/0
  9037 ;;		On exit  : 0/0
  9038 ;;		Unchanged: 0/0
  9039 ;; Data sizes:     COMMON   BANK0   BANK1   BANK3   BANK2
  9040 ;;      Params:         0       4       0       0       0
  9041 ;;      Locals:         0       1       0       0       0
  9042 ;;      Temps:          0       0       0       0       0
  9043 ;;      Totals:         0       5       0       0       0
  9044 ;;Total ram usage:        5 bytes
  9045 ;; Hardware stack levels used: 1
  9046 ;; Hardware stack levels required when called: 1
  9047 ;; This function calls:
  9048 ;;		Nothing
  9049 ;; This function is called by:
  9050 ;;		_login
  9051 ;;		_change_time
  9052 ;; This function uses a non-reentrant model
  9053 ;;
  9054                           
  9055     146E                     ___lwmod:	
  9056                           ;psect for function ___lwmod
  9057                           
  9058     146E                     l4092:	
  9059                           ;incstack = 0
  9060                           ; Regs used in ___lwmod: [wreg+status,2+status,0]
  9061                           
  9062     146E  1283               	bcf	3,5	;RP0=0, select bank0
  9063     146F  1303               	bcf	3,6	;RP1=0, select bank0
  9064     1470  0848               	movf	___lwmod@divisor,w
  9065     1471  0449               	iorwf	___lwmod@divisor+1,w
  9066     1472  1903               	btfsc	3,2
  9067     1473  2C75               	goto	u3941
  9068     1474  2C76               	goto	u3940
  9069     1475                     u3941:
  9070     1475  2CA3               	goto	l4110
  9071     1476                     u3940:
  9072     1476                     l4094:
  9073     1476  3001               	movlw	1
  9074     1477  00CC               	movwf	___lwmod@counter
  9075     1478  2C82               	goto	l4100
  9076     1479                     l4096:
  9077     1479  3001               	movlw	1
  9078     147A                     u3955:
  9079     147A  1003               	clrc
  9080     147B  0DC8               	rlf	___lwmod@divisor,f
  9081     147C  0DC9               	rlf	___lwmod@divisor+1,f
  9082     147D  3EFF               	addlw	-1
  9083     147E  1D03               	skipz
  9084     147F  2C7A               	goto	u3955
  9085     1480                     l4098:
  9086     1480  3001               	movlw	1
  9087     1481  07CC               	addwf	___lwmod@counter,f
  9088     1482                     l4100:
  9089     1482  1FC9               	btfss	___lwmod@divisor+1,7
  9090     1483  2C85               	goto	u3961
  9091     1484  2C86               	goto	u3960
  9092     1485                     u3961:
  9093     1485  2C79               	goto	l4096
  9094     1486                     u3960:
  9095     1486                     l4102:
  9096     1486  0849               	movf	___lwmod@divisor+1,w
  9097     1487  024B               	subwf	___lwmod@dividend+1,w
  9098     1488  1D03               	skipz
  9099     1489  2C8C               	goto	u3975
  9100     148A  0848               	movf	___lwmod@divisor,w
  9101     148B  024A               	subwf	___lwmod@dividend,w
  9102     148C                     u3975:
  9103     148C  1C03               	skipc
  9104     148D  2C8F               	goto	u3971
  9105     148E  2C90               	goto	u3970
  9106     148F                     u3971:
  9107     148F  2C96               	goto	l4106
  9108     1490                     u3970:
  9109     1490                     l4104:
  9110     1490  0848               	movf	___lwmod@divisor,w
  9111     1491  02CA               	subwf	___lwmod@dividend,f
  9112     1492  0849               	movf	___lwmod@divisor+1,w
  9113     1493  1C03               	skipc
  9114     1494  03CB               	decf	___lwmod@dividend+1,f
  9115     1495  02CB               	subwf	___lwmod@dividend+1,f
  9116     1496                     l4106:
  9117     1496  3001               	movlw	1
  9118     1497                     u3985:
  9119     1497  1003               	clrc
  9120     1498  0CC9               	rrf	___lwmod@divisor+1,f
  9121     1499  0CC8               	rrf	___lwmod@divisor,f
  9122     149A  3EFF               	addlw	-1
  9123     149B  1D03               	skipz
  9124     149C  2C97               	goto	u3985
  9125     149D                     l4108:
  9126     149D  3001               	movlw	1
  9127     149E  02CC               	subwf	___lwmod@counter,f
  9128     149F  1D03               	btfss	3,2
  9129     14A0  2CA2               	goto	u3991
  9130     14A1  2CA3               	goto	u3990
  9131     14A2                     u3991:
  9132     14A2  2C86               	goto	l4102
  9133     14A3                     u3990:
  9134     14A3                     l4110:
  9135     14A3  084B               	movf	___lwmod@dividend+1,w
  9136     14A4  00C9               	movwf	?___lwmod+1
  9137     14A5  084A               	movf	___lwmod@dividend,w
  9138     14A6  00C8               	movwf	?___lwmod
  9139     14A7                     l927:
  9140     14A7  0008               	return
  9141     14A8                     __end_of___lwmod:
  9142                           
  9143                           	psect	text38
  9144     1565                     __ptext38:	
  9145 ;; *************** function ___lwdiv *****************
  9146 ;; Defined at:
  9147 ;;		line 5 in file "C:\Program Files\Microchip\xc8\v2.50\pic\sources\c99\common\lwdiv.c"
  9148 ;; Parameters:    Size  Location     Type
  9149 ;;  divisor         2    6[COMMON] unsigned int 
  9150 ;;  dividend        2    8[COMMON] unsigned int 
  9151 ;; Auto vars:     Size  Location     Type
  9152 ;;  quotient        2    1[BANK0 ] unsigned int 
  9153 ;;  counter         1    0[BANK0 ] unsigned char 
  9154 ;; Return value:  Size  Location     Type
  9155 ;;                  2    6[COMMON] unsigned int 
  9156 ;; Registers used:
  9157 ;;		wreg, status,2, status,0
  9158 ;; Tracked objects:
  9159 ;;		On entry : 0/0
  9160 ;;		On exit  : 0/0
  9161 ;;		Unchanged: 0/0
  9162 ;; Data sizes:     COMMON   BANK0   BANK1   BANK3   BANK2
  9163 ;;      Params:         4       0       0       0       0
  9164 ;;      Locals:         0       3       0       0       0
  9165 ;;      Temps:          0       0       0       0       0
  9166 ;;      Totals:         4       3       0       0       0
  9167 ;;Total ram usage:        7 bytes
  9168 ;; Hardware stack levels used: 1
  9169 ;; Hardware stack levels required when called: 1
  9170 ;; This function calls:
  9171 ;;		Nothing
  9172 ;; This function is called by:
  9173 ;;		_main
  9174 ;;		_login
  9175 ;;		_change_time
  9176 ;; This function uses a non-reentrant model
  9177 ;;
  9178                           
  9179     1565                     ___lwdiv:	
  9180                           ;psect for function ___lwdiv
  9181                           
  9182     1565                     l4066:	
  9183                           ;incstack = 0
  9184                           ; Regs used in ___lwdiv: [wreg+status,2+status,0]
  9185                           
  9186     1565  1283               	bcf	3,5	;RP0=0, select bank0
  9187     1566  1303               	bcf	3,6	;RP1=0, select bank0
  9188     1567  01C6               	clrf	___lwdiv@quotient
  9189     1568  01C7               	clrf	___lwdiv@quotient+1
  9190     1569                     l4068:
  9191     1569  0876               	movf	___lwdiv@divisor,w
  9192     156A  0477               	iorwf	___lwdiv@divisor+1,w
  9193     156B  1903               	btfsc	3,2
  9194     156C  2D6E               	goto	u3871
  9195     156D  2D6F               	goto	u3870
  9196     156E                     u3871:
  9197     156E  2DA4               	goto	l4088
  9198     156F                     u3870:
  9199     156F                     l4070:
  9200     156F  3001               	movlw	1
  9201     1570  00C5               	movwf	___lwdiv@counter
  9202     1571  2D7B               	goto	l4076
  9203     1572                     l4072:
  9204     1572  3001               	movlw	1
  9205     1573                     u3885:
  9206     1573  1003               	clrc
  9207     1574  0DF6               	rlf	___lwdiv@divisor,f
  9208     1575  0DF7               	rlf	___lwdiv@divisor+1,f
  9209     1576  3EFF               	addlw	-1
  9210     1577  1D03               	skipz
  9211     1578  2D73               	goto	u3885
  9212     1579                     l4074:
  9213     1579  3001               	movlw	1
  9214     157A  07C5               	addwf	___lwdiv@counter,f
  9215     157B                     l4076:
  9216     157B  1FF7               	btfss	___lwdiv@divisor+1,7
  9217     157C  2D7E               	goto	u3891
  9218     157D  2D7F               	goto	u3890
  9219     157E                     u3891:
  9220     157E  2D72               	goto	l4072
  9221     157F                     u3890:
  9222     157F                     l4078:
  9223     157F  3001               	movlw	1
  9224     1580                     u3905:
  9225     1580  1003               	clrc
  9226     1581  0DC6               	rlf	___lwdiv@quotient,f
  9227     1582  0DC7               	rlf	___lwdiv@quotient+1,f
  9228     1583  3EFF               	addlw	-1
  9229     1584  1D03               	skipz
  9230     1585  2D80               	goto	u3905
  9231     1586  0877               	movf	___lwdiv@divisor+1,w
  9232     1587  0279               	subwf	___lwdiv@dividend+1,w
  9233     1588  1D03               	skipz
  9234     1589  2D8C               	goto	u3915
  9235     158A  0876               	movf	___lwdiv@divisor,w
  9236     158B  0278               	subwf	___lwdiv@dividend,w
  9237     158C                     u3915:
  9238     158C  1C03               	skipc
  9239     158D  2D8F               	goto	u3911
  9240     158E  2D90               	goto	u3910
  9241     158F                     u3911:
  9242     158F  2D97               	goto	l4084
  9243     1590                     u3910:
  9244     1590                     l4080:
  9245     1590  0876               	movf	___lwdiv@divisor,w
  9246     1591  02F8               	subwf	___lwdiv@dividend,f
  9247     1592  0877               	movf	___lwdiv@divisor+1,w
  9248     1593  1C03               	skipc
  9249     1594  03F9               	decf	___lwdiv@dividend+1,f
  9250     1595  02F9               	subwf	___lwdiv@dividend+1,f
  9251     1596                     l4082:
  9252     1596  1446               	bsf	___lwdiv@quotient,0
  9253     1597                     l4084:
  9254     1597  3001               	movlw	1
  9255     1598                     u3925:
  9256     1598  1003               	clrc
  9257     1599  0CF7               	rrf	___lwdiv@divisor+1,f
  9258     159A  0CF6               	rrf	___lwdiv@divisor,f
  9259     159B  3EFF               	addlw	-1
  9260     159C  1D03               	skipz
  9261     159D  2D98               	goto	u3925
  9262     159E                     l4086:
  9263     159E  3001               	movlw	1
  9264     159F  02C5               	subwf	___lwdiv@counter,f
  9265     15A0  1D03               	btfss	3,2
  9266     15A1  2DA3               	goto	u3931
  9267     15A2  2DA4               	goto	u3930
  9268     15A3                     u3931:
  9269     15A3  2D7F               	goto	l4078
  9270     15A4                     u3930:
  9271     15A4                     l4088:
  9272     15A4  0847               	movf	___lwdiv@quotient+1,w
  9273     15A5  00F7               	movwf	?___lwdiv+1
  9274     15A6  0846               	movf	___lwdiv@quotient,w
  9275     15A7  00F6               	movwf	?___lwdiv
  9276     15A8                     l917:
  9277     15A8  0008               	return
  9278     15A9                     __end_of___lwdiv:
  9279                           
  9280                           	psect	text39
  9281     0CC2                     __ptext39:	
  9282 ;; *************** function _change_password *****************
  9283 ;; Defined at:
  9284 ;;		line 512 in file "car_black_box.c"
  9285 ;; Parameters:    Size  Location     Type
  9286 ;;  key             1    wreg     unsigned char 
  9287 ;;  reset_pwd       1   10[BANK0 ] unsigned char 
  9288 ;; Auto vars:     Size  Location     Type
  9289 ;;  key             1   14[BANK0 ] unsigned char 
  9290 ;; Return value:  Size  Location     Type
  9291 ;;                  1    wreg      unsigned char 
  9292 ;; Registers used:
  9293 ;;		wreg, fsr0l, fsr0h, status,2, status,0, btemp+1, pclath, cstack
  9294 ;; Tracked objects:
  9295 ;;		On entry : 0/0
  9296 ;;		On exit  : 0/0
  9297 ;;		Unchanged: 0/0
  9298 ;; Data sizes:     COMMON   BANK0   BANK1   BANK3   BANK2
  9299 ;;      Params:         0       1       0       0       0
  9300 ;;      Locals:         0       1       0       0       0
  9301 ;;      Temps:          0       3       0       0       0
  9302 ;;      Totals:         0       5       0       0       0
  9303 ;;Total ram usage:        5 bytes
  9304 ;; Hardware stack levels used: 1
  9305 ;; Hardware stack levels required when called: 5
  9306 ;; This function calls:
  9307 ;;		_clcd_print
  9308 ;;		_clcd_putch
  9309 ;;		_clcd_write
  9310 ;;		_eeprom_at24c04_str_write
  9311 ;;		_strncmp
  9312 ;;		_strncpy
  9313 ;; This function is called by:
  9314 ;;		_main
  9315 ;; This function uses a non-reentrant model
  9316 ;;
  9317                           
  9318     0CC2                     _change_password:	
  9319                           ;psect for function _change_password
  9320                           
  9321                           
  9322                           ;incstack = 0
  9323                           ; Regs used in _change_password: [wreg-fsr0h+status,2+status,0+btemp+1+pclath+cstack]
  9324                           ;change_password@key stored from wreg
  9325     0CC2  1283               	bcf	3,5	;RP0=0, select bank0
  9326     0CC3  1303               	bcf	3,6	;RP1=0, select bank0
  9327     0CC4  00D3               	movwf	change_password@key
  9328     0CC5                     l4498:
  9329                           
  9330                           ;car_black_box.c: 512: char change_password(unsigned char key, char reset_pwd);car_black
      +                          _box.c: 513: {;car_black_box.c: 514:     static char new_pwd[9];;car_black_box.c: 515:  
      +                             static int pwd_pos = 0;;car_black_box.c: 516:     static char pwd_changed = 0;;car_bl
      +                          ack_box.c: 517:     static unsigned char toggle_cursor = 0;;car_black_box.c: 518:     st
      +                          atic unsigned int blink_delay = 0;;car_black_box.c: 522:     if (blink_delay++ == 5)
  9331     0CC5  3001               	movlw	1
  9332     0CC6  07AF               	addwf	change_password@blink_delay,f
  9333     0CC7  1803               	skipnc
  9334     0CC8  0AB0               	incf	change_password@blink_delay+1,f
  9335     0CC9  3000               	movlw	0
  9336     0CCA  07B0               	addwf	change_password@blink_delay+1,f
  9337     0CCB  3006               	movlw	6
  9338     0CCC  062F               	xorwf	change_password@blink_delay,w
  9339     0CCD  0430               	iorwf	change_password@blink_delay+1,w
  9340     0CCE  1D03               	btfss	3,2
  9341     0CCF  2CD1               	goto	u4451
  9342     0CD0  2CD2               	goto	u4450
  9343     0CD1                     u4451:
  9344     0CD1  2CDC               	goto	l4504
  9345     0CD2                     u4450:
  9346     0CD2                     l4500:
  9347                           
  9348                           ;car_black_box.c: 523:     {;car_black_box.c: 524:         blink_delay = 0;
  9349     0CD2  01AF               	clrf	change_password@blink_delay
  9350     0CD3  01B0               	clrf	change_password@blink_delay+1
  9351     0CD4                     l4502:
  9352                           
  9353                           ;car_black_box.c: 525:         toggle_cursor = !toggle_cursor;
  9354     0CD4  083B               	movf	change_password@toggle_cursor,w
  9355     0CD5  1903               	btfsc	3,2
  9356     0CD6  2CD8               	goto	u4461
  9357     0CD7  2CDA               	goto	u4460
  9358     0CD8                     u4461:
  9359     0CD8  3001               	movlw	1
  9360     0CD9  2CDB               	goto	u4470
  9361     0CDA                     u4460:
  9362     0CDA  3000               	movlw	0
  9363     0CDB                     u4470:
  9364     0CDB  00BB               	movwf	change_password@toggle_cursor
  9365     0CDC                     l4504:
  9366                           
  9367                           ;car_black_box.c: 531:     if (reset_pwd == 0x60)
  9368     0CDC  3060               	movlw	96
  9369     0CDD  064F               	xorwf	change_password@reset_pwd,w
  9370     0CDE  1D03               	btfss	3,2
  9371     0CDF  2CE1               	goto	u4481
  9372     0CE0  2CE2               	goto	u4480
  9373     0CE1                     u4481:
  9374     0CE1  2CF8               	goto	l4514
  9375     0CE2                     u4480:
  9376     0CE2                     l4506:
  9377                           
  9378                           ;car_black_box.c: 532:     {;car_black_box.c: 533:         strncpy(new_pwd, "    ", 4);
  9379     0CE2  30C4               	movlw	(low (change_password@new_pwd| 0))& (0+255)
  9380     0CE3  00F2               	movwf	strncpy@d
  9381     0CE4  3031               	movlw	low ((STR_43+13)| (0+32768))
  9382     0CE5  00F3               	movwf	strncpy@s
  9383     0CE6  3087               	movlw	high ((STR_43+13)| (0+32768))
  9384     0CE7  00F4               	movwf	strncpy@s+1
  9385     0CE8  3004               	movlw	4
  9386     0CE9  00F5               	movwf	strncpy@n
  9387     0CEA  3000               	movlw	0
  9388     0CEB  00F6               	movwf	strncpy@n+1
  9389     0CEC  160A  118A  2521  120A  158A  	fcall	_strncpy
  9390     0CF1                     l4508:
  9391                           
  9392                           ;car_black_box.c: 534:         pwd_pos = 0;
  9393     0CF1  1283               	bcf	3,5	;RP0=0, select bank0
  9394     0CF2  1303               	bcf	3,6	;RP1=0, select bank0
  9395     0CF3  01B1               	clrf	change_password@pwd_pos
  9396     0CF4  01B2               	clrf	change_password@pwd_pos+1
  9397     0CF5                     l4510:
  9398                           
  9399                           ;car_black_box.c: 535:         pwd_changed = 0;
  9400     0CF5  01FB               	clrf	change_password@pwd_changed
  9401     0CF6                     l4512:
  9402                           
  9403                           ;car_black_box.c: 536:         return_time = 5;
  9404     0CF6  3005               	movlw	5
  9405     0CF7  00EB               	movwf	_return_time
  9406     0CF8                     l4514:
  9407                           
  9408                           ;car_black_box.c: 541:     if (!return_time)
  9409     0CF8  086B               	movf	_return_time,w
  9410     0CF9  1D03               	btfss	3,2
  9411     0CFA  2CFC               	goto	u4491
  9412     0CFB  2CFD               	goto	u4490
  9413     0CFC                     u4491:
  9414     0CFC  2CFF               	goto	l4520
  9415     0CFD                     u4490:
  9416     0CFD                     l4516:
  9417                           
  9418                           ;car_black_box.c: 542:         return 0x0A;
  9419     0CFD  300A               	movlw	10
  9420     0CFE  2E5E               	goto	l390
  9421     0CFF                     l4520:
  9422                           
  9423                           ;car_black_box.c: 546:     if (pwd_changed)
  9424     0CFF  087B               	movf	change_password@pwd_changed,w
  9425     0D00  1903               	btfsc	3,2
  9426     0D01  2D03               	goto	u4501
  9427     0D02  2D04               	goto	u4500
  9428     0D03                     u4501:
  9429     0D03  2D06               	goto	l4526
  9430     0D04                     u4500:
  9431     0D04                     l4522:
  9432                           
  9433                           ;car_black_box.c: 547:         return 0x0D;
  9434     0D04  300D               	movlw	13
  9435     0D05  2E5E               	goto	l390
  9436     0D06                     l4526:
  9437                           
  9438                           ;car_black_box.c: 551:     if (pwd_pos < 4)
  9439     0D06  0832               	movf	change_password@pwd_pos+1,w
  9440     0D07  3A80               	xorlw	128
  9441     0D08  00FF               	movwf	btemp+1
  9442     0D09  3080               	movlw	128
  9443     0D0A  027F               	subwf	btemp+1,w
  9444     0D0B  1D03               	skipz
  9445     0D0C  2D0F               	goto	u4515
  9446     0D0D  3004               	movlw	4
  9447     0D0E  0231               	subwf	change_password@pwd_pos,w
  9448     0D0F                     u4515:
  9449     0D0F  1803               	skipnc
  9450     0D10  2D12               	goto	u4511
  9451     0D11  2D13               	goto	u4510
  9452     0D12                     u4511:
  9453     0D12  2D39               	goto	l4536
  9454     0D13                     u4510:
  9455     0D13                     l4528:
  9456                           
  9457                           ;car_black_box.c: 552:     {;car_black_box.c: 553:         clcd_print("Enter new pwd:  "
      +                          , (0x80 + 0));
  9458     0D13  3059               	movlw	low (STR_41| (0+32768))
  9459     0D14  00F6               	movwf	clcd_print@str
  9460     0D15  3087               	movlw	high (STR_41| (0+32768))
  9461     0D16  00F7               	movwf	clcd_print@str+1
  9462     0D17  3080               	movlw	128
  9463     0D18  00F8               	movwf	clcd_print@addr
  9464     0D19  160A  118A  23A5  120A  158A  	fcall	_clcd_print
  9465     0D1E                     l4530:
  9466                           
  9467                           ;car_black_box.c: 556:         if (toggle_cursor == 0)
  9468     0D1E  1283               	bcf	3,5	;RP0=0, select bank0
  9469     0D1F  1303               	bcf	3,6	;RP1=0, select bank0
  9470     0D20  083B               	movf	change_password@toggle_cursor,w
  9471     0D21  1D03               	btfss	3,2
  9472     0D22  2D24               	goto	u4521
  9473     0D23  2D25               	goto	u4520
  9474     0D24                     u4521:
  9475     0D24  2D2F               	goto	l4534
  9476     0D25                     u4520:
  9477     0D25                     l4532:
  9478                           
  9479                           ;car_black_box.c: 557:         {;car_black_box.c: 558:             clcd_putch((unsigned 
      +                          char) 0xFF, (0xC0 + pwd_pos));
  9480     0D25  0831               	movf	change_password@pwd_pos,w
  9481     0D26  3EC0               	addlw	192
  9482     0D27  00CD               	movwf	clcd_putch@addr
  9483     0D28  30FF               	movlw	255
  9484     0D29  160A  118A  2200  120A  158A  	fcall	_clcd_putch
  9485                           
  9486                           ;car_black_box.c: 559:         }
  9487     0D2E  2DD5               	goto	l4574
  9488     0D2F                     l4534:
  9489                           
  9490                           ;car_black_box.c: 561:         {;car_black_box.c: 562:             clcd_putch(' ', (0xC0
      +                           + pwd_pos));
  9491     0D2F  0831               	movf	change_password@pwd_pos,w
  9492     0D30  3EC0               	addlw	192
  9493     0D31  00CD               	movwf	clcd_putch@addr
  9494     0D32  3020               	movlw	32
  9495     0D33  160A  118A  2200  120A  158A  	fcall	_clcd_putch
  9496     0D38  2DD5               	goto	l4574
  9497     0D39                     l4536:
  9498     0D39  1283               	bcf	3,5	;RP0=0, select bank0
  9499     0D3A  1303               	bcf	3,6	;RP1=0, select bank0
  9500     0D3B  0832               	movf	change_password@pwd_pos+1,w
  9501     0D3C  3A80               	xorlw	128
  9502     0D3D  00FF               	movwf	btemp+1
  9503     0D3E  3080               	movlw	128
  9504     0D3F  027F               	subwf	btemp+1,w
  9505     0D40  1D03               	skipz
  9506     0D41  2D44               	goto	u4535
  9507     0D42  3004               	movlw	4
  9508     0D43  0231               	subwf	change_password@pwd_pos,w
  9509     0D44                     u4535:
  9510     0D44  1C03               	skipc
  9511     0D45  2D47               	goto	u4531
  9512     0D46  2D48               	goto	u4530
  9513     0D47                     u4531:
  9514     0D47  2DD5               	goto	l4574
  9515     0D48                     u4530:
  9516     0D48                     l4538:
  9517     0D48  1283               	bcf	3,5	;RP0=0, select bank0
  9518     0D49  1303               	bcf	3,6	;RP1=0, select bank0
  9519     0D4A  0832               	movf	change_password@pwd_pos+1,w
  9520     0D4B  3A80               	xorlw	128
  9521     0D4C  00FF               	movwf	btemp+1
  9522     0D4D  3080               	movlw	128
  9523     0D4E  027F               	subwf	btemp+1,w
  9524     0D4F  1D03               	skipz
  9525     0D50  2D53               	goto	u4545
  9526     0D51  3008               	movlw	8
  9527     0D52  0231               	subwf	change_password@pwd_pos,w
  9528     0D53                     u4545:
  9529     0D53  1803               	skipnc
  9530     0D54  2D56               	goto	u4541
  9531     0D55  2D57               	goto	u4540
  9532     0D56                     u4541:
  9533     0D56  2DD5               	goto	l4574
  9534     0D57                     u4540:
  9535     0D57                     l4540:
  9536                           
  9537                           ;car_black_box.c: 566:     {;car_black_box.c: 567:         clcd_print("Re-enter new pwd"
      +                          , (0x80 + 0));
  9538     0D57  30AE               	movlw	low (STR_42| (0+32768))
  9539     0D58  00F6               	movwf	clcd_print@str
  9540     0D59  3087               	movlw	high (STR_42| (0+32768))
  9541     0D5A  00F7               	movwf	clcd_print@str+1
  9542     0D5B  3080               	movlw	128
  9543     0D5C  00F8               	movwf	clcd_print@addr
  9544     0D5D  160A  118A  23A5  120A  158A  	fcall	_clcd_print
  9545     0D62                     l4542:
  9546                           
  9547                           ;car_black_box.c: 570:         if (toggle_cursor == 0)
  9548     0D62  1283               	bcf	3,5	;RP0=0, select bank0
  9549     0D63  1303               	bcf	3,6	;RP1=0, select bank0
  9550     0D64  083B               	movf	change_password@toggle_cursor,w
  9551     0D65  1D03               	btfss	3,2
  9552     0D66  2D68               	goto	u4551
  9553     0D67  2D69               	goto	u4550
  9554     0D68                     u4551:
  9555     0D68  2D73               	goto	l4546
  9556     0D69                     u4550:
  9557     0D69                     l4544:
  9558                           
  9559                           ;car_black_box.c: 571:         {;car_black_box.c: 572:             clcd_putch((unsigned 
      +                          char) 0xFF, (0xC0 + pwd_pos));
  9560     0D69  0831               	movf	change_password@pwd_pos,w
  9561     0D6A  3EC0               	addlw	192
  9562     0D6B  00CD               	movwf	clcd_putch@addr
  9563     0D6C  30FF               	movlw	255
  9564     0D6D  160A  118A  2200  120A  158A  	fcall	_clcd_putch
  9565                           
  9566                           ;car_black_box.c: 573:         }
  9567     0D72  2DD5               	goto	l4574
  9568     0D73                     l4546:
  9569                           
  9570                           ;car_black_box.c: 575:         {;car_black_box.c: 576:             clcd_putch(' ', (0xC0
      +                           + pwd_pos));
  9571     0D73  0831               	movf	change_password@pwd_pos,w
  9572     0D74  3EC0               	addlw	192
  9573     0D75  00CD               	movwf	clcd_putch@addr
  9574     0D76  3020               	movlw	32
  9575     0D77  160A  118A  2200  120A  158A  	fcall	_clcd_putch
  9576     0D7C  2DD5               	goto	l4574
  9577     0D7D                     l4548:
  9578                           
  9579                           ;car_black_box.c: 585:             new_pwd[pwd_pos] = '0';
  9580     0D7D  0831               	movf	change_password@pwd_pos,w
  9581     0D7E  3EC4               	addlw	(low (change_password@new_pwd| 0))& (0+255)
  9582     0D7F  0084               	movwf	4
  9583     0D80  3030               	movlw	48
  9584     0D81  1383               	bcf	3,7	;select IRP bank1
  9585     0D82  0080               	movwf	0
  9586     0D83                     l4550:
  9587                           
  9588                           ;car_black_box.c: 586:             clcd_putch('*', (0xC0 + pwd_pos));
  9589     0D83  0831               	movf	change_password@pwd_pos,w
  9590     0D84  3EC0               	addlw	192
  9591     0D85  00CD               	movwf	clcd_putch@addr
  9592     0D86  302A               	movlw	42
  9593     0D87  160A  118A  2200  120A  158A  	fcall	_clcd_putch
  9594     0D8C                     l4552:
  9595                           
  9596                           ;car_black_box.c: 587:             pwd_pos++;
  9597     0D8C  3001               	movlw	1
  9598     0D8D  1283               	bcf	3,5	;RP0=0, select bank0
  9599     0D8E  1303               	bcf	3,6	;RP1=0, select bank0
  9600     0D8F  07B1               	addwf	change_password@pwd_pos,f
  9601     0D90  1803               	skipnc
  9602     0D91  0AB2               	incf	change_password@pwd_pos+1,f
  9603     0D92  3000               	movlw	0
  9604     0D93  07B2               	addwf	change_password@pwd_pos+1,f
  9605     0D94                     l4554:
  9606                           
  9607                           ;car_black_box.c: 588:             return_time = 5;
  9608     0D94  3005               	movlw	5
  9609     0D95  00EB               	movwf	_return_time
  9610     0D96                     l4556:
  9611                           
  9612                           ;car_black_box.c: 589:             if (pwd_pos == 4)
  9613     0D96  3004               	movlw	4
  9614     0D97  0631               	xorwf	change_password@pwd_pos,w
  9615     0D98  0432               	iorwf	change_password@pwd_pos+1,w
  9616     0D99  1D03               	btfss	3,2
  9617     0D9A  2D9C               	goto	u4561
  9618     0D9B  2D9D               	goto	u4560
  9619     0D9C                     u4561:
  9620     0D9C  2DDF               	goto	l4576
  9621     0D9D                     u4560:
  9622     0D9D                     l4558:
  9623                           
  9624                           ;car_black_box.c: 590:                 clcd_print("                 ", (0xC0 + 0));
  9625     0D9D  3024               	movlw	low (STR_43| (0+32768))
  9626     0D9E  00F6               	movwf	clcd_print@str
  9627     0D9F  3087               	movlw	high (STR_43| (0+32768))
  9628     0DA0  00F7               	movwf	clcd_print@str+1
  9629     0DA1  30C0               	movlw	192
  9630     0DA2  00F8               	movwf	clcd_print@addr
  9631     0DA3  160A  118A  23A5  120A  158A  	fcall	_clcd_print
  9632     0DA8  2DDF               	goto	l4576
  9633     0DA9                     l4560:
  9634                           
  9635                           ;car_black_box.c: 594:             new_pwd[pwd_pos] = '1';
  9636     0DA9  0831               	movf	change_password@pwd_pos,w
  9637     0DAA  3EC4               	addlw	(low (change_password@new_pwd| 0))& (0+255)
  9638     0DAB  0084               	movwf	4
  9639     0DAC  3031               	movlw	49
  9640     0DAD  1383               	bcf	3,7	;select IRP bank1
  9641     0DAE  0080               	movwf	0
  9642     0DAF                     l4562:
  9643                           
  9644                           ;car_black_box.c: 595:             clcd_putch('*', (0xC0 + pwd_pos));
  9645     0DAF  0831               	movf	change_password@pwd_pos,w
  9646     0DB0  3EC0               	addlw	192
  9647     0DB1  00CD               	movwf	clcd_putch@addr
  9648     0DB2  302A               	movlw	42
  9649     0DB3  160A  118A  2200  120A  158A  	fcall	_clcd_putch
  9650     0DB8                     l4564:
  9651                           
  9652                           ;car_black_box.c: 596:             pwd_pos++;
  9653     0DB8  3001               	movlw	1
  9654     0DB9  1283               	bcf	3,5	;RP0=0, select bank0
  9655     0DBA  1303               	bcf	3,6	;RP1=0, select bank0
  9656     0DBB  07B1               	addwf	change_password@pwd_pos,f
  9657     0DBC  1803               	skipnc
  9658     0DBD  0AB2               	incf	change_password@pwd_pos+1,f
  9659     0DBE  3000               	movlw	0
  9660     0DBF  07B2               	addwf	change_password@pwd_pos+1,f
  9661     0DC0                     l4566:
  9662                           
  9663                           ;car_black_box.c: 597:             return_time = 5;
  9664     0DC0  3005               	movlw	5
  9665     0DC1  00EB               	movwf	_return_time
  9666     0DC2                     l4568:
  9667                           
  9668                           ;car_black_box.c: 598:             if (pwd_pos == 4)
  9669     0DC2  3004               	movlw	4
  9670     0DC3  0631               	xorwf	change_password@pwd_pos,w
  9671     0DC4  0432               	iorwf	change_password@pwd_pos+1,w
  9672     0DC5  1D03               	btfss	3,2
  9673     0DC6  2DC8               	goto	u4571
  9674     0DC7  2DC9               	goto	u4570
  9675     0DC8                     u4571:
  9676     0DC8  2DDF               	goto	l4576
  9677     0DC9                     u4570:
  9678     0DC9                     l4570:
  9679                           
  9680                           ;car_black_box.c: 599:                 clcd_print("                 ", (0xC0 + 0));
  9681     0DC9  3024               	movlw	low (STR_43| (0+32768))
  9682     0DCA  00F6               	movwf	clcd_print@str
  9683     0DCB  3087               	movlw	high (STR_43| (0+32768))
  9684     0DCC  00F7               	movwf	clcd_print@str+1
  9685     0DCD  30C0               	movlw	192
  9686     0DCE  00F8               	movwf	clcd_print@addr
  9687     0DCF  160A  118A  23A5  120A  158A  	fcall	_clcd_print
  9688     0DD4  2DDF               	goto	l4576
  9689     0DD5                     l4574:
  9690     0DD5  1283               	bcf	3,5	;RP0=0, select bank0
  9691     0DD6  1303               	bcf	3,6	;RP1=0, select bank0
  9692     0DD7  0853               	movf	change_password@key,w
  9693                           
  9694                           ; Switch size 1, requested type "simple"
  9695                           ; Number of cases is 2, Range of values is 47 to 55
  9696                           ; switch strategies available:
  9697                           ; Name         Instructions Cycles
  9698                           ; simple_byte            7     4 (average)
  9699                           ; direct_byte           38    11 (fixed)
  9700                           ; jumptable            263     9 (fixed)
  9701                           ;	Chosen strategy is simple_byte
  9702     0DD8  3A2F               	xorlw	47	; case 47
  9703     0DD9  1903               	skipnz
  9704     0DDA  2D7D               	goto	l4548
  9705     0DDB  3A18               	xorlw	24	; case 55
  9706     0DDC  1903               	skipnz
  9707     0DDD  2DA9               	goto	l4560
  9708     0DDE  2DDF               	goto	l4576
  9709     0DDF                     l4576:
  9710                           
  9711                           ;car_black_box.c: 605:     if (pwd_pos == 8)
  9712     0DDF  3008               	movlw	8
  9713     0DE0  1283               	bcf	3,5	;RP0=0, select bank0
  9714     0DE1  1303               	bcf	3,6	;RP1=0, select bank0
  9715     0DE2  0631               	xorwf	change_password@pwd_pos,w
  9716     0DE3  0432               	iorwf	change_password@pwd_pos+1,w
  9717     0DE4  1D03               	btfss	3,2
  9718     0DE5  2DE7               	goto	u4581
  9719     0DE6  2DE8               	goto	u4580
  9720     0DE7                     u4581:
  9721     0DE7  2D04               	goto	l4522
  9722     0DE8                     u4580:
  9723     0DE8                     l4578:
  9724                           
  9725                           ;car_black_box.c: 606:     {;car_black_box.c: 607:         if (strncmp(new_pwd, &new_pwd
      +                          [4], 4) == 0)
  9726     0DE8  30C4               	movlw	(low (change_password@new_pwd| 0))& (0+255)
  9727     0DE9  00F2               	movwf	strncmp@l
  9728     0DEA  30C8               	movlw	(low ((change_password@new_pwd| 0+4)))& (0+255)
  9729     0DEB  00F3               	movwf	strncmp@r
  9730     0DEC  3004               	movlw	4
  9731     0DED  00F4               	movwf	strncmp@n
  9732     0DEE  3000               	movlw	0
  9733     0DEF  00F5               	movwf	strncmp@n+1
  9734     0DF0  160A  118A  25A9  120A  158A  	fcall	_strncmp
  9735     0DF5  0872               	movf	?_strncmp,w
  9736     0DF6  0473               	iorwf	?_strncmp+1,w
  9737     0DF7  1D03               	btfss	3,2
  9738     0DF8  2DFA               	goto	u4591
  9739     0DF9  2DFB               	goto	u4590
  9740     0DFA                     u4591:
  9741     0DFA  2E40               	goto	l4602
  9742     0DFB                     u4590:
  9743     0DFB                     l4580:
  9744                           
  9745                           ;car_black_box.c: 608:         {;car_black_box.c: 610:             new_pwd[8] = 0;
  9746     0DFB  1683               	bsf	3,5	;RP0=1, select bank1
  9747     0DFC  1303               	bcf	3,6	;RP1=0, select bank1
  9748     0DFD  01CC               	clrf	(change_password@new_pwd^(0+128)+8)
  9749     0DFE                     l4582:
  9750                           
  9751                           ;car_black_box.c: 611:             eeprom_at24c04_str_write(0x00, &new_pwd[4]);
  9752     0DFE  30C8               	movlw	(low ((change_password@new_pwd| 0+4)))& (0+255)
  9753     0DFF  00F7               	movwf	eeprom_at24c04_str_write@data
  9754     0E00  3000               	movlw	0
  9755     0E01  00F8               	movwf	eeprom_at24c04_str_write@data+1
  9756     0E02  3000               	movlw	0
  9757     0E03  160A  118A  22F9  120A  158A  	fcall	_eeprom_at24c04_str_write
  9758     0E08                     l4584:
  9759                           
  9760                           ;car_black_box.c: 612:             pwd_pos++;
  9761     0E08  3001               	movlw	1
  9762     0E09  1283               	bcf	3,5	;RP0=0, select bank0
  9763     0E0A  1303               	bcf	3,6	;RP1=0, select bank0
  9764     0E0B  07B1               	addwf	change_password@pwd_pos,f
  9765     0E0C  1803               	skipnc
  9766     0E0D  0AB2               	incf	change_password@pwd_pos+1,f
  9767     0E0E  3000               	movlw	0
  9768     0E0F  07B2               	addwf	change_password@pwd_pos+1,f
  9769     0E10                     l4586:
  9770                           
  9771                           ;car_black_box.c: 613:             clcd_write(0x01, 0);
  9772     0E10  01F2               	clrf	clcd_write@mode
  9773     0E11  3001               	movlw	1
  9774     0E12  160A  118A  224C  120A  158A  	fcall	_clcd_write
  9775     0E17                     l4588:
  9776                           
  9777                           ;car_black_box.c: 614:             clcd_print("Password changed", (0x80 + 0));
  9778     0E17  308C               	movlw	low (STR_45| (0+32768))
  9779     0E18  00F6               	movwf	clcd_print@str
  9780     0E19  3087               	movlw	high (STR_45| (0+32768))
  9781     0E1A  00F7               	movwf	clcd_print@str+1
  9782     0E1B  3080               	movlw	128
  9783     0E1C  00F8               	movwf	clcd_print@addr
  9784     0E1D  160A  118A  23A5  120A  158A  	fcall	_clcd_print
  9785     0E22                     l4590:
  9786                           
  9787                           ;car_black_box.c: 615:             clcd_print("successfully ", (0xC0 + 2));
  9788     0E22  3054               	movlw	low (STR_46| (0+32768))
  9789     0E23  00F6               	movwf	clcd_print@str
  9790     0E24  3088               	movlw	high (STR_46| (0+32768))
  9791     0E25  00F7               	movwf	clcd_print@str+1
  9792     0E26  30C2               	movlw	194
  9793     0E27  00F8               	movwf	clcd_print@addr
  9794     0E28  160A  118A  23A5  120A  158A  	fcall	_clcd_print
  9795     0E2D                     l4592:
  9796                           
  9797                           ;car_black_box.c: 616:             pwd_changed = 1;
  9798     0E2D  3001               	movlw	1
  9799     0E2E  00FB               	movwf	change_password@pwd_changed
  9800     0E2F                     l4594:
  9801                           
  9802                           ;car_black_box.c: 617:             _delay((unsigned long)((1000)*(20000000/4000.0)));
  9803     0E2F  301A               	movlw	26
  9804     0E30  1283               	bcf	3,5	;RP0=0, select bank0
  9805     0E31  1303               	bcf	3,6	;RP1=0, select bank0
  9806     0E32  00D2               	movwf	??_change_password+2
  9807     0E33  305E               	movlw	94
  9808     0E34  00D1               	movwf	??_change_password+1
  9809     0E35  306D               	movlw	109
  9810     0E36  00D0               	movwf	??_change_password
  9811     0E37                     u5127:
  9812     0E37  0BD0               	decfsz	??_change_password,f
  9813     0E38  2E37               	goto	u5127
  9814     0E39  0BD1               	decfsz	??_change_password+1,f
  9815     0E3A  2E37               	goto	u5127
  9816     0E3B  0BD2               	decfsz	??_change_password+2,f
  9817     0E3C  2E37               	goto	u5127
  9818     0E3D  2E3E               	nop2
  9819     0E3E                     l4596:
  9820                           
  9821                           ;car_black_box.c: 618:             return 0x0C;
  9822     0E3E  300C               	movlw	12
  9823     0E3F  2E5E               	goto	l390
  9824     0E40                     l4602:
  9825                           
  9826                           ;car_black_box.c: 621:         {;car_black_box.c: 623:             clcd_write(0x01, 0);
  9827     0E40  01F2               	clrf	clcd_write@mode
  9828     0E41  3001               	movlw	1
  9829     0E42  160A  118A  224C  120A  158A  	fcall	_clcd_write
  9830     0E47                     l4604:
  9831                           
  9832                           ;car_black_box.c: 624:             clcd_print("Password  change", (0x80 + 0));
  9833     0E47  30BF               	movlw	low (STR_47| (0+32768))
  9834     0E48  00F6               	movwf	clcd_print@str
  9835     0E49  3087               	movlw	high (STR_47| (0+32768))
  9836     0E4A  00F7               	movwf	clcd_print@str+1
  9837     0E4B  3080               	movlw	128
  9838     0E4C  00F8               	movwf	clcd_print@addr
  9839     0E4D  160A  118A  23A5  120A  158A  	fcall	_clcd_print
  9840     0E52                     l4606:
  9841                           
  9842                           ;car_black_box.c: 625:             clcd_print("failed", (0xC0 + 5));
  9843     0E52  30C6               	movlw	low (STR_48| (0+32768))
  9844     0E53  00F6               	movwf	clcd_print@str
  9845     0E54  3088               	movlw	high (STR_48| (0+32768))
  9846     0E55  00F7               	movwf	clcd_print@str+1
  9847     0E56  30C5               	movlw	197
  9848     0E57  00F8               	movwf	clcd_print@addr
  9849     0E58  160A  118A  23A5  120A  158A  	fcall	_clcd_print
  9850     0E5D  2E2D               	goto	l4592
  9851     0E5E                     l390:
  9852     0E5E  0008               	return
  9853     0E5F                     __end_of_change_password:
  9854                           
  9855                           	psect	text40
  9856     1521                     __ptext40:	
  9857 ;; *************** function _strncpy *****************
  9858 ;; Defined at:
  9859 ;;		line 3 in file "C:\Program Files\Microchip\xc8\v2.50\pic\sources\c99\common\strncpy.c"
  9860 ;; Parameters:    Size  Location     Type
  9861 ;;  d               1    2[COMMON] PTR unsigned char 
  9862 ;;		 -> change_password@new_pwd(9), log(11), 
  9863 ;;  s               2    3[COMMON] PTR const unsigned char 
  9864 ;;		 -> STR_40(5), time(7), STR_16(3), STR_15(3), 
  9865 ;;		 -> STR_14(3), STR_11(3), main@event(3), 
  9866 ;;  n               2    5[COMMON] unsigned int 
  9867 ;; Auto vars:     Size  Location     Type
  9868 ;;  cp              1    9[COMMON] PTR unsigned char 
  9869 ;;		 -> change_password@new_pwd(9), log(11), 
  9870 ;; Return value:  Size  Location     Type
  9871 ;;                  1    2[COMMON] PTR unsigned char 
  9872 ;; Registers used:
  9873 ;;		wreg, fsr0l, fsr0h, status,2, status,0, btemp+1, pclath
  9874 ;; Tracked objects:
  9875 ;;		On entry : 0/0
  9876 ;;		On exit  : 0/0
  9877 ;;		Unchanged: 0/0
  9878 ;; Data sizes:     COMMON   BANK0   BANK1   BANK3   BANK2
  9879 ;;      Params:         5       0       0       0       0
  9880 ;;      Locals:         1       0       0       0       0
  9881 ;;      Temps:          2       0       0       0       0
  9882 ;;      Totals:         8       0       0       0       0
  9883 ;;Total ram usage:        8 bytes
  9884 ;; Hardware stack levels used: 2
  9885 ;; Hardware stack levels required when called: 1
  9886 ;; This function calls:
  9887 ;;		Nothing
  9888 ;; This function is called by:
  9889 ;;		_log_car_event
  9890 ;;		_change_password
  9891 ;; This function uses a non-reentrant model
  9892 ;;
  9893                           
  9894     1521                     _strncpy:	
  9895                           ;psect for function _strncpy
  9896                           
  9897     1521                     l3904:	
  9898                           ;incstack = 0
  9899                           ; Regs used in _strncpy: [wreg-fsr0h+status,2+status,0+btemp+1+pclath]
  9900                           
  9901     1521  0872               	movf	strncpy@d,w
  9902     1522  00F9               	movwf	strncpy@cp
  9903     1523  2D49               	goto	l3912
  9904     1524                     l3906:
  9905     1524  3001               	movlw	1
  9906     1525  02F5               	subwf	strncpy@n,f
  9907     1526  3000               	movlw	0
  9908     1527  1C03               	skipc
  9909     1528  03F6               	decf	strncpy@n+1,f
  9910     1529  02F6               	subwf	strncpy@n+1,f
  9911     152A                     l3908:
  9912     152A  0874               	movf	strncpy@s+1,w
  9913     152B  00F8               	movwf	??_strncpy+1
  9914     152C  0873               	movf	strncpy@s,w
  9915     152D  00F7               	movwf	??_strncpy
  9916     152E  0AF3               	incf	strncpy@s,f
  9917     152F  1903               	skipnz
  9918     1530  0AF4               	incf	strncpy@s+1,f
  9919     1531  0878               	movf	??_strncpy+1,w
  9920     1532  1283               	bcf	3,5	;RP0=0, select bank0
  9921     1533  1303               	bcf	3,6	;RP1=0, select bank0
  9922     1534  00FF               	movwf	btemp+1
  9923     1535  0877               	movf	??_strncpy,w
  9924     1536  0084               	movwf	4
  9925     1537  160A  118A  2000  160A  118A  	fcall	stringtab
  9926     153C  00FF               	movwf	btemp+1
  9927     153D  0879               	movf	strncpy@cp,w
  9928     153E  0AF9               	incf	strncpy@cp,f
  9929     153F  0084               	movwf	4
  9930     1540  087F               	movf	btemp+1,w
  9931     1541  1383               	bcf	3,7	;select IRP bank0
  9932     1542  0080               	movwf	0
  9933     1543  0800               	movf	0,w
  9934     1544  1D03               	btfss	3,2
  9935     1545  2D47               	goto	u3551
  9936     1546  2D48               	goto	u3550
  9937     1547                     u3551:
  9938     1547  2D49               	goto	l3912
  9939     1548                     u3550:
  9940     1548  2D56               	goto	l3918
  9941     1549                     l3912:
  9942     1549  0875               	movf	strncpy@n,w
  9943     154A  0476               	iorwf	strncpy@n+1,w
  9944     154B  1D03               	btfss	3,2
  9945     154C  2D4E               	goto	u3561
  9946     154D  2D4F               	goto	u3560
  9947     154E                     u3561:
  9948     154E  2D24               	goto	l3906
  9949     154F                     u3560:
  9950     154F  2D56               	goto	l3918
  9951     1550                     l3914:
  9952     1550  0879               	movf	strncpy@cp,w
  9953     1551  0084               	movwf	4
  9954     1552  1383               	bcf	3,7	;select IRP bank0
  9955     1553  0180               	clrf	0
  9956     1554                     l3916:
  9957     1554  3001               	movlw	1
  9958     1555  07F9               	addwf	strncpy@cp,f
  9959     1556                     l3918:
  9960     1556  3001               	movlw	1
  9961     1557  02F5               	subwf	strncpy@n,f
  9962     1558  3000               	movlw	0
  9963     1559  1C03               	skipc
  9964     155A  03F6               	decf	strncpy@n+1,f
  9965     155B  02F6               	subwf	strncpy@n+1,f
  9966     155C  0A75               	incf	strncpy@n,w
  9967     155D  1D03               	skipz
  9968     155E  2D63               	goto	u3571
  9969     155F  0A76               	incf	strncpy@n+1,w
  9970     1560  1D03               	btfss	3,2
  9971     1561  2D63               	goto	u3571
  9972     1562  2D64               	goto	u3570
  9973     1563                     u3571:
  9974     1563  2D50               	goto	l3914
  9975     1564                     u3570:
  9976     1564                     l1118:
  9977     1564  0008               	return
  9978     1565                     __end_of_strncpy:
  9979                           
  9980                           	psect	text41
  9981     15A9                     __ptext41:	
  9982 ;; *************** function _strncmp *****************
  9983 ;; Defined at:
  9984 ;;		line 3 in file "C:\Program Files\Microchip\xc8\v2.50\pic\sources\c99\common\strncmp.c"
  9985 ;; Parameters:    Size  Location     Type
  9986 ;;  l               1    2[COMMON] PTR const unsigned char 
  9987 ;;		 -> change_password@new_pwd(9), login@spassword(4), 
  9988 ;;  r               1    3[COMMON] PTR const unsigned char 
  9989 ;;		 -> change_password@new_pwd(9), login@npassword(4), 
  9990 ;;  n               2    4[COMMON] unsigned int 
  9991 ;; Auto vars:     Size  Location     Type
  9992 ;;		None
  9993 ;; Return value:  Size  Location     Type
  9994 ;;                  2    2[COMMON] int 
  9995 ;; Registers used:
  9996 ;;		wreg, fsr0l, fsr0h, status,2, status,0
  9997 ;; Tracked objects:
  9998 ;;		On entry : 0/0
  9999 ;;		On exit  : 0/0
 10000 ;;		Unchanged: 0/0
 10001 ;; Data sizes:     COMMON   BANK0   BANK1   BANK3   BANK2
 10002 ;;      Params:         4       0       0       0       0
 10003 ;;      Locals:         0       0       0       0       0
 10004 ;;      Temps:          2       0       0       0       0
 10005 ;;      Totals:         6       0       0       0       0
 10006 ;;Total ram usage:        6 bytes
 10007 ;; Hardware stack levels used: 1
 10008 ;; Hardware stack levels required when called: 1
 10009 ;; This function calls:
 10010 ;;		Nothing
 10011 ;; This function is called by:
 10012 ;;		_login
 10013 ;;		_change_password
 10014 ;; This function uses a non-reentrant model
 10015 ;;
 10016                           
 10017     15A9                     _strncmp:	
 10018                           ;psect for function _strncmp
 10019                           
 10020     15A9                     l3940:	
 10021                           ;incstack = 0
 10022                           ; Regs used in _strncmp: [wreg-fsr0h+status,2+status,0]
 10023                           
 10024     15A9  3001               	movlw	1
 10025     15AA  02F4               	subwf	strncmp@n,f
 10026     15AB  3000               	movlw	0
 10027     15AC  1C03               	skipc
 10028     15AD  03F5               	decf	strncmp@n+1,f
 10029     15AE  02F5               	subwf	strncmp@n+1,f
 10030     15AF  0A74               	incf	strncmp@n,w
 10031     15B0  1D03               	skipz
 10032     15B1  2DB6               	goto	u3581
 10033     15B2  0A75               	incf	strncmp@n+1,w
 10034     15B3  1D03               	btfss	3,2
 10035     15B4  2DB6               	goto	u3581
 10036     15B5  2DB7               	goto	u3580
 10037     15B6                     u3581:
 10038     15B6  2DC4               	goto	l3950
 10039     15B7                     u3580:
 10040     15B7                     l3942:
 10041     15B7  01F2               	clrf	?_strncmp
 10042     15B8  01F3               	clrf	?_strncmp+1
 10043     15B9  2DF3               	goto	l1103
 10044     15BA                     l3946:
 10045     15BA  3001               	movlw	1
 10046     15BB  07F2               	addwf	strncmp@l,f
 10047     15BC  3001               	movlw	1
 10048     15BD  07F3               	addwf	strncmp@r,f
 10049     15BE                     l3948:
 10050     15BE  3001               	movlw	1
 10051     15BF  02F4               	subwf	strncmp@n,f
 10052     15C0  3000               	movlw	0
 10053     15C1  1C03               	skipc
 10054     15C2  03F5               	decf	strncmp@n+1,f
 10055     15C3  02F5               	subwf	strncmp@n+1,f
 10056     15C4                     l3950:
 10057     15C4  0872               	movf	strncmp@l,w
 10058     15C5  0084               	movwf	4
 10059     15C6  1383               	bcf	3,7	;select IRP bank0
 10060     15C7  0800               	movf	0,w
 10061     15C8  1903               	btfsc	3,2
 10062     15C9  2DCB               	goto	u3591
 10063     15CA  2DCC               	goto	u3590
 10064     15CB                     u3591:
 10065     15CB  2DE5               	goto	l3958
 10066     15CC                     u3590:
 10067     15CC                     l3952:
 10068     15CC  0873               	movf	strncmp@r,w
 10069     15CD  0084               	movwf	4
 10070     15CE  0800               	movf	0,w
 10071     15CF  1903               	btfsc	3,2
 10072     15D0  2DD2               	goto	u3601
 10073     15D1  2DD3               	goto	u3600
 10074     15D2                     u3601:
 10075     15D2  2DE5               	goto	l3958
 10076     15D3                     u3600:
 10077     15D3                     l3954:
 10078     15D3  0874               	movf	strncmp@n,w
 10079     15D4  0475               	iorwf	strncmp@n+1,w
 10080     15D5  1903               	btfsc	3,2
 10081     15D6  2DD8               	goto	u3611
 10082     15D7  2DD9               	goto	u3610
 10083     15D8                     u3611:
 10084     15D8  2DE5               	goto	l3958
 10085     15D9                     u3610:
 10086     15D9                     l3956:
 10087     15D9  0873               	movf	strncmp@r,w
 10088     15DA  0084               	movwf	4
 10089     15DB  0800               	movf	0,w
 10090     15DC  00F6               	movwf	??_strncmp
 10091     15DD  0872               	movf	strncmp@l,w
 10092     15DE  0084               	movwf	4
 10093     15DF  0800               	movf	0,w
 10094     15E0  0676               	xorwf	??_strncmp,w
 10095     15E1  1903               	skipnz
 10096     15E2  2DE4               	goto	u3621
 10097     15E3  2DE5               	goto	u3620
 10098     15E4                     u3621:
 10099     15E4  2DBA               	goto	l3946
 10100     15E5                     u3620:
 10101     15E5                     l3958:
 10102     15E5  0873               	movf	strncmp@r,w
 10103     15E6  0084               	movwf	4
 10104     15E7  0800               	movf	0,w
 10105     15E8  00F6               	movwf	??_strncmp
 10106     15E9  0872               	movf	strncmp@l,w
 10107     15EA  0084               	movwf	4
 10108     15EB  0800               	movf	0,w
 10109     15EC  00F7               	movwf	??_strncmp+1
 10110     15ED  0876               	movf	??_strncmp,w
 10111     15EE  0277               	subwf	??_strncmp+1,w
 10112     15EF  00F2               	movwf	?_strncmp
 10113     15F0  01F3               	clrf	?_strncmp+1
 10114     15F1  1C03               	skipc
 10115     15F2  03F3               	decf	?_strncmp+1,f
 10116     15F3                     l1103:
 10117     15F3  0008               	return
 10118     15F4                     __end_of_strncmp:
 10119                           
 10120                           	psect	text42
 10121     12F9                     __ptext42:	
 10122 ;; *************** function _eeprom_at24c04_str_write *****************
 10123 ;; Defined at:
 10124 ;;		line 31 in file "at24c04.c"
 10125 ;; Parameters:    Size  Location     Type
 10126 ;;  memory_loc      1    wreg     unsigned char 
 10127 ;;  data            2    7[COMMON] PTR unsigned char 
 10128 ;;		 -> change_password@new_pwd(9), log(11), STR_7(5), 
 10129 ;; Auto vars:     Size  Location     Type
 10130 ;;  memory_loc      1    9[COMMON] unsigned char 
 10131 ;; Return value:  Size  Location     Type
 10132 ;;                  1    wreg      void 
 10133 ;; Registers used:
 10134 ;;		wreg, fsr0l, fsr0h, status,2, status,0, btemp+1, pclath, cstack
 10135 ;; Tracked objects:
 10136 ;;		On entry : 0/0
 10137 ;;		On exit  : 0/0
 10138 ;;		Unchanged: 0/0
 10139 ;; Data sizes:     COMMON   BANK0   BANK1   BANK3   BANK2
 10140 ;;      Params:         2       0       0       0       0
 10141 ;;      Locals:         1       0       0       0       0
 10142 ;;      Temps:          0       0       0       0       0
 10143 ;;      Totals:         3       0       0       0       0
 10144 ;;Total ram usage:        3 bytes
 10145 ;; Hardware stack levels used: 1
 10146 ;; Hardware stack levels required when called: 4
 10147 ;; This function calls:
 10148 ;;		_eeprom_at24c04_byte_write
 10149 ;; This function is called by:
 10150 ;;		_main
 10151 ;;		_log_event
 10152 ;;		_change_password
 10153 ;; This function uses a non-reentrant model
 10154 ;;
 10155                           
 10156     12F9                     _eeprom_at24c04_str_write:	
 10157                           ;psect for function _eeprom_at24c04_str_write
 10158                           
 10159                           
 10160                           ;incstack = 0
 10161                           ; Regs used in _eeprom_at24c04_str_write: [wreg-fsr0h+status,2+status,0+btemp+1+pclath+c
      +                          stack]
 10162                           ;eeprom_at24c04_str_write@memory_loc stored from wreg
 10163     12F9  00F9               	movwf	eeprom_at24c04_str_write@memory_loc
 10164     12FA                     l3778:
 10165                           
 10166                           ;at24c04.c: 31: void eeprom_at24c04_str_write(unsigned char memory_loc, char *data);at24
      +                          c04.c: 32: {;at24c04.c: 33:     while (*data != 0)
 10167     12FA  2B13               	goto	l3786
 10168     12FB                     l3780:
 10169                           
 10170                           ;at24c04.c: 34:     {;at24c04.c: 35:         eeprom_at24c04_byte_write(memory_loc, *data
      +                          );
 10171     12FB  0878               	movf	eeprom_at24c04_str_write@data+1,w
 10172     12FC  00FF               	movwf	btemp+1
 10173     12FD  0877               	movf	eeprom_at24c04_str_write@data,w
 10174     12FE  0084               	movwf	4
 10175     12FF  160A  118A  2000  160A  118A  	fcall	stringtab
 10176     1304  00F3               	movwf	eeprom_at24c04_byte_write@data
 10177     1305  0879               	movf	eeprom_at24c04_str_write@memory_loc,w
 10178     1306  120A  118A  26D6  160A  118A  	fcall	_eeprom_at24c04_byte_write
 10179     130B                     l3782:
 10180                           
 10181                           ;at24c04.c: 36:         data++;
 10182     130B  3001               	movlw	1
 10183     130C  07F7               	addwf	eeprom_at24c04_str_write@data,f
 10184     130D  1803               	skipnc
 10185     130E  0AF8               	incf	eeprom_at24c04_str_write@data+1,f
 10186     130F  3000               	movlw	0
 10187     1310  07F8               	addwf	eeprom_at24c04_str_write@data+1,f
 10188     1311                     l3784:
 10189                           
 10190                           ;at24c04.c: 37:         memory_loc++;
 10191     1311  3001               	movlw	1
 10192     1312  07F9               	addwf	eeprom_at24c04_str_write@memory_loc,f
 10193     1313                     l3786:
 10194                           
 10195                           ;at24c04.c: 33:     while (*data != 0)
 10196     1313  0878               	movf	eeprom_at24c04_str_write@data+1,w
 10197     1314  1283               	bcf	3,5	;RP0=0, select bank0
 10198     1315  1303               	bcf	3,6	;RP1=0, select bank0
 10199     1316  00FF               	movwf	btemp+1
 10200     1317  0877               	movf	eeprom_at24c04_str_write@data,w
 10201     1318  0084               	movwf	4
 10202     1319  160A  118A  2000  160A  118A  	fcall	stringtab
 10203     131E  3A00               	xorlw	0
 10204     131F  1D03               	skipz
 10205     1320  2B22               	goto	u3361
 10206     1321  2B23               	goto	u3360
 10207     1322                     u3361:
 10208     1322  2AFB               	goto	l3780
 10209     1323                     u3360:
 10210     1323                     l486:
 10211     1323  0008               	return
 10212     1324                     __end_of_eeprom_at24c04_str_write:
 10213                           
 10214                           	psect	text43
 10215     06D6                     __ptext43:	
 10216 ;; *************** function _eeprom_at24c04_byte_write *****************
 10217 ;; Defined at:
 10218 ;;		line 20 in file "at24c04.c"
 10219 ;; Parameters:    Size  Location     Type
 10220 ;;  memory_loc      1    wreg     unsigned char 
 10221 ;;  data            1    3[COMMON] unsigned char 
 10222 ;; Auto vars:     Size  Location     Type
 10223 ;;  memory_loc      1    6[COMMON] unsigned char 
 10224 ;; Return value:  Size  Location     Type
 10225 ;;                  1    wreg      void 
 10226 ;; Registers used:
 10227 ;;		wreg, status,2, status,0, pclath, cstack
 10228 ;; Tracked objects:
 10229 ;;		On entry : 0/0
 10230 ;;		On exit  : 0/0
 10231 ;;		Unchanged: 0/0
 10232 ;; Data sizes:     COMMON   BANK0   BANK1   BANK3   BANK2
 10233 ;;      Params:         1       0       0       0       0
 10234 ;;      Locals:         1       0       0       0       0
 10235 ;;      Temps:          2       0       0       0       0
 10236 ;;      Totals:         4       0       0       0       0
 10237 ;;Total ram usage:        4 bytes
 10238 ;; Hardware stack levels used: 1
 10239 ;; Hardware stack levels required when called: 3
 10240 ;; This function calls:
 10241 ;;		_i2c_start
 10242 ;;		_i2c_stop
 10243 ;;		_i2c_write
 10244 ;; This function is called by:
 10245 ;;		_eeprom_at24c04_str_write
 10246 ;; This function uses a non-reentrant model
 10247 ;;
 10248                           
 10249     06D6                     _eeprom_at24c04_byte_write:	
 10250                           ;psect for function _eeprom_at24c04_byte_write
 10251                           
 10252                           
 10253                           ;incstack = 0
 10254                           ; Regs used in _eeprom_at24c04_byte_write: [wreg+status,2+status,0+pclath+cstack]
 10255                           ;eeprom_at24c04_byte_write@memory_loc stored from wreg
 10256     06D6  00F6               	movwf	eeprom_at24c04_byte_write@memory_loc
 10257     06D7                     l3750:
 10258                           
 10259                           ;at24c04.c: 20: void eeprom_at24c04_byte_write(unsigned char memory_loc, unsigned char d
      +                          ata);at24c04.c: 21: {;at24c04.c: 22:     i2c_start();
 10260     06D7  160A  118A  214D  120A  118A  	fcall	_i2c_start
 10261                           
 10262                           ;at24c04.c: 23:     i2c_write(0xA0);
 10263     06DC  30A0               	movlw	160
 10264     06DD  160A  118A  215F  120A  118A  	fcall	_i2c_write
 10265                           
 10266                           ;at24c04.c: 24:     i2c_write(memory_loc);
 10267     06E2  0876               	movf	eeprom_at24c04_byte_write@memory_loc,w
 10268     06E3  160A  118A  215F  120A  118A  	fcall	_i2c_write
 10269                           
 10270                           ;at24c04.c: 25:     i2c_write(data);
 10271     06E8  0873               	movf	eeprom_at24c04_byte_write@data,w
 10272     06E9  160A  118A  215F  120A  118A  	fcall	_i2c_write
 10273                           
 10274                           ;at24c04.c: 26:     i2c_stop();
 10275     06EE  160A  118A  2156  120A  118A  	fcall	_i2c_stop
 10276     06F3                     l3752:
 10277                           
 10278                           ;at24c04.c: 28:     _delay((unsigned long)((3)*(20000000/4000.0)));
 10279     06F3  3014               	movlw	20
 10280     06F4  00F5               	movwf	??_eeprom_at24c04_byte_write+1
 10281     06F5  3079               	movlw	121
 10282     06F6  00F4               	movwf	??_eeprom_at24c04_byte_write
 10283     06F7                     u5137:
 10284     06F7  0BF4               	decfsz	??_eeprom_at24c04_byte_write,f
 10285     06F8  2EF7               	goto	u5137
 10286     06F9  0BF5               	decfsz	??_eeprom_at24c04_byte_write+1,f
 10287     06FA  2EF7               	goto	u5137
 10288     06FB  2EFC               	nop2
 10289     06FC                     l480:
 10290     06FC  0008               	return
 10291     06FD                     __end_of_eeprom_at24c04_byte_write:
 10292                           
 10293                           	psect	text44
 10294     115F                     __ptext44:	
 10295 ;; *************** function _i2c_write *****************
 10296 ;; Defined at:
 10297 ;;		line 65 in file "i2c.c"
 10298 ;; Parameters:    Size  Location     Type
 10299 ;;  data            1    wreg     unsigned char 
 10300 ;; Auto vars:     Size  Location     Type
 10301 ;;  data            1    2[COMMON] unsigned char 
 10302 ;; Return value:  Size  Location     Type
 10303 ;;                  2   40[None  ] int 
 10304 ;; Registers used:
 10305 ;;		wreg, status,2, status,0, pclath, cstack
 10306 ;; Tracked objects:
 10307 ;;		On entry : 0/0
 10308 ;;		On exit  : 0/0
 10309 ;;		Unchanged: 0/0
 10310 ;; Data sizes:     COMMON   BANK0   BANK1   BANK3   BANK2
 10311 ;;      Params:         0       0       0       0       0
 10312 ;;      Locals:         1       0       0       0       0
 10313 ;;      Temps:          0       0       0       0       0
 10314 ;;      Totals:         1       0       0       0       0
 10315 ;;Total ram usage:        1 bytes
 10316 ;; Hardware stack levels used: 1
 10317 ;; Hardware stack levels required when called: 2
 10318 ;; This function calls:
 10319 ;;		_i2c_wait_for_idle
 10320 ;; This function is called by:
 10321 ;;		_read_ds1307
 10322 ;;		_write_ds1307
 10323 ;;		_eeprom_at24c04_random_read
 10324 ;;		_eeprom_at24c04_byte_write
 10325 ;; This function uses a non-reentrant model
 10326 ;;
 10327                           
 10328     115F                     _i2c_write:	
 10329                           ;psect for function _i2c_write
 10330                           
 10331                           
 10332                           ;incstack = 0
 10333                           ; Regs used in _i2c_write: [wreg+status,2+status,0+pclath+cstack]
 10334                           ;i2c_write@data stored from wreg
 10335     115F  00F2               	movwf	i2c_write@data
 10336     1160                     l3712:
 10337                           
 10338                           ;i2c.c: 65: int i2c_write(unsigned char data);i2c.c: 66: {;i2c.c: 67:     i2c_wait_for_i
      +                          dle();
 10339     1160  160A  118A  218B  160A  118A  	fcall	_i2c_wait_for_idle
 10340     1165                     l3714:
 10341                           
 10342                           ;i2c.c: 68:     SSPBUF = data;
 10343     1165  0872               	movf	i2c_write@data,w
 10344     1166  1283               	bcf	3,5	;RP0=0, select bank0
 10345     1167  1303               	bcf	3,6	;RP1=0, select bank0
 10346     1168  0093               	movwf	19	;volatile
 10347     1169                     l3716:
 10348     1169                     l107:	
 10349                           ;i2c.c: 70:     return !ACKSTAT;;	Return value of _i2c_write is never used
 10350                           
 10351     1169  0008               	return
 10352     116A                     __end_of_i2c_write:
 10353                           
 10354                           	psect	text45
 10355     1156                     __ptext45:	
 10356 ;; *************** function _i2c_stop *****************
 10357 ;; Defined at:
 10358 ;;		line 35 in file "i2c.c"
 10359 ;; Parameters:    Size  Location     Type
 10360 ;;		None
 10361 ;; Auto vars:     Size  Location     Type
 10362 ;;		None
 10363 ;; Return value:  Size  Location     Type
 10364 ;;                  1    wreg      void 
 10365 ;; Registers used:
 10366 ;;		wreg, status,2, status,0, pclath, cstack
 10367 ;; Tracked objects:
 10368 ;;		On entry : 0/0
 10369 ;;		On exit  : 0/0
 10370 ;;		Unchanged: 0/0
 10371 ;; Data sizes:     COMMON   BANK0   BANK1   BANK3   BANK2
 10372 ;;      Params:         0       0       0       0       0
 10373 ;;      Locals:         0       0       0       0       0
 10374 ;;      Temps:          0       0       0       0       0
 10375 ;;      Totals:         0       0       0       0       0
 10376 ;;Total ram usage:        0 bytes
 10377 ;; Hardware stack levels used: 1
 10378 ;; Hardware stack levels required when called: 2
 10379 ;; This function calls:
 10380 ;;		_i2c_wait_for_idle
 10381 ;; This function is called by:
 10382 ;;		_read_ds1307
 10383 ;;		_write_ds1307
 10384 ;;		_i2c_rep_start
 10385 ;;		_eeprom_at24c04_random_read
 10386 ;;		_eeprom_at24c04_byte_write
 10387 ;; This function uses a non-reentrant model
 10388 ;;
 10389                           
 10390     1156                     _i2c_stop:	
 10391                           ;psect for function _i2c_stop
 10392                           
 10393     1156                     l3708:	
 10394                           ;incstack = 0
 10395                           ; Regs used in _i2c_stop: [wreg+status,2+status,0+pclath+cstack]
 10396                           
 10397                           
 10398                           ;i2c.c: 37:     i2c_wait_for_idle();
 10399     1156  160A  118A  218B  160A  118A  	fcall	_i2c_wait_for_idle
 10400     115B                     l3710:
 10401                           
 10402                           ;i2c.c: 38:     PEN = 1;
 10403     115B  1683               	bsf	3,5	;RP0=1, select bank1
 10404     115C  1303               	bcf	3,6	;RP1=0, select bank1
 10405     115D  1511               	bsf	17,2	;volatile
 10406     115E                     l99:
 10407     115E  0008               	return
 10408     115F                     __end_of_i2c_stop:
 10409                           
 10410                           	psect	text46
 10411     114D                     __ptext46:	
 10412 ;; *************** function _i2c_start *****************
 10413 ;; Defined at:
 10414 ;;		line 22 in file "i2c.c"
 10415 ;; Parameters:    Size  Location     Type
 10416 ;;		None
 10417 ;; Auto vars:     Size  Location     Type
 10418 ;;		None
 10419 ;; Return value:  Size  Location     Type
 10420 ;;                  1    wreg      void 
 10421 ;; Registers used:
 10422 ;;		wreg, status,2, status,0, pclath, cstack
 10423 ;; Tracked objects:
 10424 ;;		On entry : 0/0
 10425 ;;		On exit  : 0/0
 10426 ;;		Unchanged: 0/0
 10427 ;; Data sizes:     COMMON   BANK0   BANK1   BANK3   BANK2
 10428 ;;      Params:         0       0       0       0       0
 10429 ;;      Locals:         0       0       0       0       0
 10430 ;;      Temps:          0       0       0       0       0
 10431 ;;      Totals:         0       0       0       0       0
 10432 ;;Total ram usage:        0 bytes
 10433 ;; Hardware stack levels used: 1
 10434 ;; Hardware stack levels required when called: 2
 10435 ;; This function calls:
 10436 ;;		_i2c_wait_for_idle
 10437 ;; This function is called by:
 10438 ;;		_read_ds1307
 10439 ;;		_write_ds1307
 10440 ;;		_i2c_rep_start
 10441 ;;		_eeprom_at24c04_random_read
 10442 ;;		_eeprom_at24c04_byte_write
 10443 ;; This function uses a non-reentrant model
 10444 ;;
 10445                           
 10446     114D                     _i2c_start:	
 10447                           ;psect for function _i2c_start
 10448                           
 10449     114D                     l3704:	
 10450                           ;incstack = 0
 10451                           ; Regs used in _i2c_start: [wreg+status,2+status,0+pclath+cstack]
 10452                           
 10453                           
 10454                           ;i2c.c: 24:     i2c_wait_for_idle();
 10455     114D  160A  118A  218B  160A  118A  	fcall	_i2c_wait_for_idle
 10456     1152                     l3706:
 10457                           
 10458                           ;i2c.c: 25:     SEN = 1;
 10459     1152  1683               	bsf	3,5	;RP0=1, select bank1
 10460     1153  1303               	bcf	3,6	;RP1=0, select bank1
 10461     1154  1411               	bsf	17,0	;volatile
 10462     1155                     l93:
 10463     1155  0008               	return
 10464     1156                     __end_of_i2c_start:
 10465                           
 10466                           	psect	text47
 10467     118B                     __ptext47:	
 10468 ;; *************** function _i2c_wait_for_idle *****************
 10469 ;; Defined at:
 10470 ;;		line 16 in file "i2c.c"
 10471 ;; Parameters:    Size  Location     Type
 10472 ;;		None
 10473 ;; Auto vars:     Size  Location     Type
 10474 ;;		None
 10475 ;; Return value:  Size  Location     Type
 10476 ;;                  1    wreg      void 
 10477 ;; Registers used:
 10478 ;;		wreg, status,2
 10479 ;; Tracked objects:
 10480 ;;		On entry : 0/0
 10481 ;;		On exit  : 0/0
 10482 ;;		Unchanged: 0/0
 10483 ;; Data sizes:     COMMON   BANK0   BANK1   BANK3   BANK2
 10484 ;;      Params:         0       0       0       0       0
 10485 ;;      Locals:         0       0       0       0       0
 10486 ;;      Temps:          0       0       0       0       0
 10487 ;;      Totals:         0       0       0       0       0
 10488 ;;Total ram usage:        0 bytes
 10489 ;; Hardware stack levels used: 1
 10490 ;; Hardware stack levels required when called: 1
 10491 ;; This function calls:
 10492 ;;		Nothing
 10493 ;; This function is called by:
 10494 ;;		_i2c_start
 10495 ;;		_i2c_stop
 10496 ;;		_i2c_read
 10497 ;;		_i2c_write
 10498 ;; This function uses a non-reentrant model
 10499 ;;
 10500                           
 10501     118B                     _i2c_wait_for_idle:	
 10502                           ;psect for function _i2c_wait_for_idle
 10503                           
 10504     118B                     l3700:	
 10505                           ;incstack = 0
 10506                           ; Regs used in _i2c_wait_for_idle: [wreg+status,2]
 10507                           
 10508     118B                     l87:	
 10509                           ;i2c.c: 19:     while (R_nW || (SSPCON2 & 0x1F));
 10510                           
 10511     118B  1683               	bsf	3,5	;RP0=1, select bank1
 10512     118C  1303               	bcf	3,6	;RP1=0, select bank1
 10513     118D  1914               	btfsc	20,2	;volatile
 10514     118E  2990               	goto	u3311
 10515     118F  2991               	goto	u3310
 10516     1190                     u3311:
 10517     1190  298B               	goto	l87
 10518     1191                     u3310:
 10519     1191                     l3702:
 10520     1191  0811               	movf	17,w	;volatile
 10521     1192  391F               	andlw	31
 10522     1193  1D03               	btfss	3,2
 10523     1194  2996               	goto	u3321
 10524     1195  2997               	goto	u3320
 10525     1196                     u3321:
 10526     1196  298B               	goto	l87
 10527     1197                     u3320:
 10528     1197                     l90:
 10529     1197  0008               	return
 10530     1198                     __end_of_i2c_wait_for_idle:
 10531                           
 10532                           	psect	text48
 10533     1200                     __ptext48:	
 10534 ;; *************** function _clcd_putch *****************
 10535 ;; Defined at:
 10536 ;;		line 49 in file "clcd.c"
 10537 ;; Parameters:    Size  Location     Type
 10538 ;;  data            1    wreg     const unsigned char 
 10539 ;;  addr            1    8[BANK0 ] unsigned char 
 10540 ;; Auto vars:     Size  Location     Type
 10541 ;;  data            1    9[BANK0 ] const unsigned char 
 10542 ;; Return value:  Size  Location     Type
 10543 ;;                  1    wreg      void 
 10544 ;; Registers used:
 10545 ;;		wreg, status,2, status,0, pclath, cstack
 10546 ;; Tracked objects:
 10547 ;;		On entry : 0/0
 10548 ;;		On exit  : 0/0
 10549 ;;		Unchanged: 0/0
 10550 ;; Data sizes:     COMMON   BANK0   BANK1   BANK3   BANK2
 10551 ;;      Params:         0       1       0       0       0
 10552 ;;      Locals:         0       1       0       0       0
 10553 ;;      Temps:          0       0       0       0       0
 10554 ;;      Totals:         0       2       0       0       0
 10555 ;;Total ram usage:        2 bytes
 10556 ;; Hardware stack levels used: 1
 10557 ;; Hardware stack levels required when called: 2
 10558 ;; This function calls:
 10559 ;;		_clcd_write
 10560 ;; This function is called by:
 10561 ;;		_display_time
 10562 ;;		_display_dashboard
 10563 ;;		_login
 10564 ;;		_login_menu
 10565 ;;		_view_log
 10566 ;;		_change_password
 10567 ;;		_change_time
 10568 ;; This function uses a non-reentrant model
 10569 ;;
 10570                           
 10571     1200                     _clcd_putch:	
 10572                           ;psect for function _clcd_putch
 10573                           
 10574                           
 10575                           ;incstack = 0
 10576                           ; Regs used in _clcd_putch: [wreg+status,2+status,0+pclath+cstack]
 10577                           ;clcd_putch@data stored from wreg
 10578     1200  1283               	bcf	3,5	;RP0=0, select bank0
 10579     1201  1303               	bcf	3,6	;RP1=0, select bank0
 10580     1202  00CE               	movwf	clcd_putch@data
 10581     1203                     l3774:
 10582                           
 10583                           ;clcd.c: 49: void clcd_putch(const char data, unsigned char addr);clcd.c: 50: {;clcd.c: 
      +                          51:     clcd_write(addr, 0);
 10584     1203  01F2               	clrf	clcd_write@mode
 10585     1204  084D               	movf	clcd_putch@addr,w
 10586     1205  160A  118A  224C  160A  118A  	fcall	_clcd_write
 10587                           
 10588                           ;clcd.c: 52:     clcd_write(data, 1);
 10589     120A  01F2               	clrf	clcd_write@mode
 10590     120B  0AF2               	incf	clcd_write@mode,f
 10591     120C  1283               	bcf	3,5	;RP0=0, select bank0
 10592     120D  1303               	bcf	3,6	;RP1=0, select bank0
 10593     120E  084E               	movf	clcd_putch@data,w
 10594     120F  160A  118A  224C  160A  118A  	fcall	_clcd_write
 10595     1214                     l26:
 10596     1214  0008               	return
 10597     1215                     __end_of_clcd_putch:
 10598                           
 10599                           	psect	text49
 10600     13A5                     __ptext49:	
 10601 ;; *************** function _clcd_print *****************
 10602 ;; Defined at:
 10603 ;;		line 55 in file "clcd.c"
 10604 ;; Parameters:    Size  Location     Type
 10605 ;;  str             2    6[COMMON] PTR const unsigned char 
 10606 ;;		 -> STR_54(3), STR_53(3), STR_52(3), STR_51(13), 
 10607 ;;		 -> STR_50(13), STR_49(16), STR_48(7), STR_47(17), 
 10608 ;;		 -> STR_46(14), STR_45(17), STR_44(18), STR_43(18), 
 10609 ;;		 -> STR_42(17), STR_41(17), STR_33(13), STR_32(13), 
 10610 ;;		 -> STR_31(17), STR_30(17), STR_29(17), STR_28(17), 
 10611 ;;		 -> STR_27(17), STR_26(16), STR_25(17), STR_24(17), 
 10612 ;;		 -> STR_23(17), STR_22(17), STR_21(9), STR_20(15), 
 10613 ;;		 -> STR_19(13), STR_18(10), STR_17(9), STR_13(17), 
 10614 ;;		 -> STR_12(17), STR_10(17), STR_9(17), main@event(3), 
 10615 ;;  addr            1    8[COMMON] unsigned char 
 10616 ;; Auto vars:     Size  Location     Type
 10617 ;;		None
 10618 ;; Return value:  Size  Location     Type
 10619 ;;                  1    wreg      void 
 10620 ;; Registers used:
 10621 ;;		wreg, fsr0l, fsr0h, status,2, status,0, btemp+1, pclath, cstack
 10622 ;; Tracked objects:
 10623 ;;		On entry : 0/0
 10624 ;;		On exit  : 0/0
 10625 ;;		Unchanged: 0/0
 10626 ;; Data sizes:     COMMON   BANK0   BANK1   BANK3   BANK2
 10627 ;;      Params:         3       0       0       0       0
 10628 ;;      Locals:         0       0       0       0       0
 10629 ;;      Temps:          0       0       0       0       0
 10630 ;;      Totals:         3       0       0       0       0
 10631 ;;Total ram usage:        3 bytes
 10632 ;; Hardware stack levels used: 1
 10633 ;; Hardware stack levels required when called: 2
 10634 ;; This function calls:
 10635 ;;		_clcd_write
 10636 ;; This function is called by:
 10637 ;;		_main
 10638 ;;		_display_dashboard
 10639 ;;		_login
 10640 ;;		_login_menu
 10641 ;;		_view_log
 10642 ;;		_clear_log
 10643 ;;		_change_password
 10644 ;;		_change_time
 10645 ;; This function uses a non-reentrant model
 10646 ;;
 10647                           
 10648     13A5                     _clcd_print:	
 10649                           ;psect for function _clcd_print
 10650                           
 10651     13A5                     l3852:	
 10652                           ;incstack = 0
 10653                           ; Regs used in _clcd_print: [wreg-fsr0h+status,2+status,0+btemp+1+pclath+cstack]
 10654                           
 10655                           
 10656                           ;clcd.c: 55: void clcd_print(const char *str, unsigned char addr);clcd.c: 56: {;clcd.c: 
      +                          57:     clcd_write(addr, 0);
 10657     13A5  01F2               	clrf	clcd_write@mode
 10658     13A6  0878               	movf	clcd_print@addr,w
 10659     13A7  160A  118A  224C  160A  118A  	fcall	_clcd_write
 10660                           
 10661                           ;clcd.c: 59:     while (*str != '\0')
 10662     13AC  2BC3               	goto	l3858
 10663     13AD                     l3854:
 10664                           
 10665                           ;clcd.c: 60:     {;clcd.c: 61:         clcd_write(*str, 1);
 10666     13AD  01F2               	clrf	clcd_write@mode
 10667     13AE  0AF2               	incf	clcd_write@mode,f
 10668     13AF  0877               	movf	clcd_print@str+1,w
 10669     13B0  00FF               	movwf	btemp+1
 10670     13B1  0876               	movf	clcd_print@str,w
 10671     13B2  0084               	movwf	4
 10672     13B3  160A  118A  2000  160A  118A  	fcall	stringtab
 10673     13B8  160A  118A  224C  160A  118A  	fcall	_clcd_write
 10674     13BD                     l3856:
 10675                           
 10676                           ;clcd.c: 62:         str++;
 10677     13BD  3001               	movlw	1
 10678     13BE  07F6               	addwf	clcd_print@str,f
 10679     13BF  1803               	skipnc
 10680     13C0  0AF7               	incf	clcd_print@str+1,f
 10681     13C1  3000               	movlw	0
 10682     13C2  07F7               	addwf	clcd_print@str+1,f
 10683     13C3                     l3858:
 10684                           
 10685                           ;clcd.c: 59:     while (*str != '\0')
 10686     13C3  0877               	movf	clcd_print@str+1,w
 10687     13C4  1283               	bcf	3,5	;RP0=0, select bank0
 10688     13C5  1303               	bcf	3,6	;RP1=0, select bank0
 10689     13C6  00FF               	movwf	btemp+1
 10690     13C7  0876               	movf	clcd_print@str,w
 10691     13C8  0084               	movwf	4
 10692     13C9  160A  118A  2000  160A  118A  	fcall	stringtab
 10693     13CE  3A00               	xorlw	0
 10694     13CF  1D03               	skipz
 10695     13D0  2BD2               	goto	u3501
 10696     13D1  2BD3               	goto	u3500
 10697     13D2                     u3501:
 10698     13D2  2BAD               	goto	l3854
 10699     13D3                     u3500:
 10700     13D3                     l32:
 10701     13D3  0008               	return
 10702     13D4                     __end_of_clcd_print:
 10703                           
 10704                           	psect	text50
 10705     124C                     __ptext50:	
 10706 ;; *************** function _clcd_write *****************
 10707 ;; Defined at:
 10708 ;;		line 4 in file "clcd.c"
 10709 ;; Parameters:    Size  Location     Type
 10710 ;;  byte            1    wreg     unsigned char 
 10711 ;;  mode            1    2[COMMON] unsigned char 
 10712 ;; Auto vars:     Size  Location     Type
 10713 ;;  byte            1    5[COMMON] unsigned char 
 10714 ;; Return value:  Size  Location     Type
 10715 ;;                  1    wreg      void 
 10716 ;; Registers used:
 10717 ;;		wreg
 10718 ;; Tracked objects:
 10719 ;;		On entry : 0/0
 10720 ;;		On exit  : 0/0
 10721 ;;		Unchanged: 0/0
 10722 ;; Data sizes:     COMMON   BANK0   BANK1   BANK3   BANK2
 10723 ;;      Params:         1       0       0       0       0
 10724 ;;      Locals:         1       0       0       0       0
 10725 ;;      Temps:          2       0       0       0       0
 10726 ;;      Totals:         4       0       0       0       0
 10727 ;;Total ram usage:        4 bytes
 10728 ;; Hardware stack levels used: 1
 10729 ;; Hardware stack levels required when called: 1
 10730 ;; This function calls:
 10731 ;;		Nothing
 10732 ;; This function is called by:
 10733 ;;		_init_display_controller
 10734 ;;		_clcd_putch
 10735 ;;		_clcd_print
 10736 ;;		_main
 10737 ;;		_clear_screen
 10738 ;;		_login
 10739 ;;		_change_password
 10740 ;;		_change_time
 10741 ;; This function uses a non-reentrant model
 10742 ;;
 10743                           
 10744     124C                     _clcd_write:	
 10745                           ;psect for function _clcd_write
 10746                           
 10747                           
 10748                           ;incstack = 0
 10749                           ; Regs used in _clcd_write: [wreg]
 10750                           ;clcd_write@byte stored from wreg
 10751     124C  00F5               	movwf	clcd_write@byte
 10752     124D                     l3736:
 10753                           
 10754                           ;clcd.c: 4: void clcd_write(unsigned char byte, unsigned char mode);clcd.c: 5: {;clcd.c:
      +                           6:     RE2 = mode;
 10755     124D  1872               	btfsc	clcd_write@mode,0
 10756     124E  2A50               	goto	u3341
 10757     124F  2A54               	goto	u3340
 10758     1250                     u3341:
 10759     1250  1283               	bcf	3,5	;RP0=0, select bank0
 10760     1251  1303               	bcf	3,6	;RP1=0, select bank0
 10761     1252  1509               	bsf	9,2	;volatile
 10762     1253  2A57               	goto	u3354
 10763     1254                     u3340:
 10764     1254  1283               	bcf	3,5	;RP0=0, select bank0
 10765     1255  1303               	bcf	3,6	;RP1=0, select bank0
 10766     1256  1109               	bcf	9,2	;volatile
 10767     1257                     u3354:
 10768     1257                     l3738:
 10769                           
 10770                           ;clcd.c: 7:     PORTD = byte;
 10771     1257  0875               	movf	clcd_write@byte,w
 10772     1258  0088               	movwf	8	;volatile
 10773     1259                     l3740:
 10774                           
 10775                           ;clcd.c: 9:     RE1 = 1;
 10776     1259  1489               	bsf	9,1	;volatile
 10777                           
 10778                           ;clcd.c: 10:     _delay((unsigned long)((100)*(20000000/4000000.0)));
 10779     125A  30A6               	movlw	166
 10780     125B  00F3               	movwf	??_clcd_write
 10781     125C                     u5147:
 10782     125C  0BF3               	decfsz	??_clcd_write,f
 10783     125D  2A5C               	goto	u5147
 10784     125E  0000               	nop
 10785     125F                     l3742:
 10786                           
 10787                           ;clcd.c: 11:     RE1 = 0;
 10788     125F  1283               	bcf	3,5	;RP0=0, select bank0
 10789     1260  1303               	bcf	3,6	;RP1=0, select bank0
 10790     1261  1089               	bcf	9,1	;volatile
 10791                           
 10792                           ;clcd.c: 13:     _delay((unsigned long)((4100)*(20000000/4000000.0)));
 10793     1262  301B               	movlw	27
 10794     1263  00F4               	movwf	??_clcd_write+1
 10795     1264  309E               	movlw	158
 10796     1265  00F3               	movwf	??_clcd_write
 10797     1266                     u5157:
 10798     1266  0BF3               	decfsz	??_clcd_write,f
 10799     1267  2A66               	goto	u5157
 10800     1268  0BF4               	decfsz	??_clcd_write+1,f
 10801     1269  2A66               	goto	u5157
 10802     126A  0000               	nop
 10803     126B                     l17:
 10804     126B  0008               	return
 10805     126C                     __end_of_clcd_write:
 10806                           
 10807                           	psect	text51
 10808     1436                     __ptext51:	
 10809 ;; *************** function _isr *****************
 10810 ;; Defined at:
 10811 ;;		line 7 in file "isr.c"
 10812 ;; Parameters:    Size  Location     Type
 10813 ;;		None
 10814 ;; Auto vars:     Size  Location     Type
 10815 ;;		None
 10816 ;; Return value:  Size  Location     Type
 10817 ;;                  1    wreg      void 
 10818 ;; Registers used:
 10819 ;;		wreg, status,2, status,0
 10820 ;; Tracked objects:
 10821 ;;		On entry : 0/0
 10822 ;;		On exit  : 0/0
 10823 ;;		Unchanged: 0/0
 10824 ;; Data sizes:     COMMON   BANK0   BANK1   BANK3   BANK2
 10825 ;;      Params:         0       0       0       0       0
 10826 ;;      Locals:         0       0       0       0       0
 10827 ;;      Temps:          2       0       0       0       0
 10828 ;;      Totals:         2       0       0       0       0
 10829 ;;Total ram usage:        2 bytes
 10830 ;; Hardware stack levels used: 1
 10831 ;; This function calls:
 10832 ;;		Nothing
 10833 ;; This function is called by:
 10834 ;;		Interrupt level 1
 10835 ;; This function uses a non-reentrant model
 10836 ;;
 10837                           
 10838     1436                     _isr:	
 10839                           ;psect for function _isr
 10840                           
 10841     1436                     i1l3652:
 10842                           
 10843                           ;isr.c: 9:     static unsigned int count = 0;;isr.c: 11:     if (TMR2IF == 1)
 10844     1436  1283               	bcf	3,5	;RP0=0, select bank0
 10845     1437  1303               	bcf	3,6	;RP1=0, select bank0
 10846     1438  1C8C               	btfss	12,1	;volatile
 10847     1439  2C3B               	goto	u326_21
 10848     143A  2C3C               	goto	u326_20
 10849     143B                     u326_21:
 10850     143B  2C67               	goto	i1l516
 10851     143C                     u326_20:
 10852     143C                     i1l3654:
 10853                           
 10854                           ;isr.c: 12:     {;isr.c: 13:         if (++count == 1250)
 10855     143C  3001               	movlw	1
 10856     143D  07A9               	addwf	isr@count,f
 10857     143E  1803               	skipnc
 10858     143F  0AAA               	incf	isr@count+1,f
 10859     1440  3000               	movlw	0
 10860     1441  07AA               	addwf	isr@count+1,f
 10861     1442  30E2               	movlw	226
 10862     1443  0629               	xorwf	isr@count,w
 10863     1444  3004               	movlw	4
 10864     1445  1903               	skipnz
 10865     1446  062A               	xorwf	isr@count+1,w
 10866     1447  1D03               	btfss	3,2
 10867     1448  2C4A               	goto	u327_21
 10868     1449  2C4B               	goto	u327_20
 10869     144A                     u327_21:
 10870     144A  2C66               	goto	i1l3668
 10871     144B                     u327_20:
 10872     144B                     i1l3656:
 10873                           
 10874                           ;isr.c: 14:         {;isr.c: 15:             count = 0;
 10875     144B  01A9               	clrf	isr@count
 10876     144C  01AA               	clrf	isr@count+1
 10877     144D                     i1l3658:
 10878                           
 10879                           ;isr.c: 16:             if (sec > 0)
 10880     144D  0835               	movf	_sec,w
 10881     144E  0436               	iorwf	_sec+1,w
 10882     144F  1903               	btfsc	3,2
 10883     1450  2C52               	goto	u328_21
 10884     1451  2C53               	goto	u328_20
 10885     1452                     u328_21:
 10886     1452  2C59               	goto	i1l3662
 10887     1453                     u328_20:
 10888     1453                     i1l3660:
 10889                           
 10890                           ;isr.c: 17:             {;isr.c: 18:                 sec--;
 10891     1453  3001               	movlw	1
 10892     1454  02B5               	subwf	_sec,f
 10893     1455  3000               	movlw	0
 10894     1456  1C03               	skipc
 10895     1457  03B6               	decf	_sec+1,f
 10896     1458  02B6               	subwf	_sec+1,f
 10897     1459                     i1l3662:
 10898                           
 10899                           ;isr.c: 21:             if(sec == 0 && return_time > 0)
 10900     1459  0835               	movf	_sec,w
 10901     145A  0436               	iorwf	_sec+1,w
 10902     145B  1D03               	btfss	3,2
 10903     145C  2C5E               	goto	u329_21
 10904     145D  2C5F               	goto	u329_20
 10905     145E                     u329_21:
 10906     145E  2C66               	goto	i1l3668
 10907     145F                     u329_20:
 10908     145F                     i1l3664:
 10909     145F  086B               	movf	_return_time,w
 10910     1460  1903               	btfsc	3,2
 10911     1461  2C63               	goto	u330_21
 10912     1462  2C64               	goto	u330_20
 10913     1463                     u330_21:
 10914     1463  2C66               	goto	i1l3668
 10915     1464                     u330_20:
 10916     1464                     i1l3666:
 10917                           
 10918                           ;isr.c: 22:             {;isr.c: 23:                 return_time--;
 10919     1464  3001               	movlw	1
 10920     1465  02EB               	subwf	_return_time,f
 10921     1466                     i1l3668:
 10922                           
 10923                           ;isr.c: 27:         TMR2IF = 0;
 10924     1466  108C               	bcf	12,1	;volatile
 10925     1467                     i1l516:
 10926     1467  0871               	movf	??_isr+1,w
 10927     1468  008A               	movwf	10
 10928     1469  0E70               	swapf	??_isr,w
 10929     146A  0083               	movwf	3
 10930     146B  0EFE               	swapf	btemp,f
 10931     146C  0E7E               	swapf	btemp,w
 10932     146D  0009               	retfie
 10933     146E                     __end_of_isr:
 10934     0002                     ___latbits      equ	2
 10935     007E                     btemp           set	126	;btemp
 10936     007E                     wtemp0          set	126
 10937                           
 10938                           	psect	intentry
 10939     0004                     __pintentry:	
 10940                           ;incstack = 0
 10941                           ; Regs used in _isr: [wreg+status,2+status,0]
 10942                           
 10943     0004                     interrupt_function:
 10944     007E                     saved_w         set	btemp
 10945     0004  00FE               	movwf	btemp
 10946     0005  0E03               	swapf	3,w
 10947     0006  00F0               	movwf	??_isr
 10948     0007  080A               	movf	10,w
 10949     0008  00F1               	movwf	??_isr+1
 10950     0009  160A  118A  2C36   	ljmp	_isr
 10951                           
 10952                           	psect	idloc
 10953                           
 10954                           ;Config register IDLOC0 @ 0x2000
 10955                           ;	unspecified, using default values
 10956     2000                     	org	8192
 10957     2000  3FFF               	dw	16383
 10958                           
 10959                           ;Config register IDLOC1 @ 0x2001
 10960                           ;	unspecified, using default values
 10961     2001                     	org	8193
 10962     2001  3FFF               	dw	16383
 10963                           
 10964                           ;Config register IDLOC2 @ 0x2002
 10965                           ;	unspecified, using default values
 10966     2002                     	org	8194
 10967     2002  3FFF               	dw	16383
 10968                           
 10969                           ;Config register IDLOC3 @ 0x2003
 10970                           ;	unspecified, using default values
 10971     2003                     	org	8195
 10972     2003  3FFF               	dw	16383
 10973                           
 10974                           	psect	config
 10975                           
 10976                           ;Config register CONFIG @ 0x2007
 10977                           ;	Oscillator Selection bits
 10978                           ;	FOSC = 0x3, unprogrammed default
 10979                           ;	Watchdog Timer Enable bit
 10980                           ;	WDTE = OFF, WDT disabled
 10981                           ;	Power-up Timer Enable bit
 10982                           ;	PWRTE = 0x1, unprogrammed default
 10983                           ;	Brown-out Reset Enable bit
 10984                           ;	BOREN = 0x1, unprogrammed default
 10985                           ;	Low-Voltage (Single-Supply) In-Circuit Serial Programming Enable bit
 10986                           ;	LVP = 0x1, unprogrammed default
 10987                           ;	Data EEPROM Memory Code Protection bit
 10988                           ;	CPD = 0x1, unprogrammed default
 10989                           ;	Flash Program Memory Write Enable bits
 10990                           ;	WRT = 0x3, unprogrammed default
 10991                           ;	In-Circuit Debugger Mode bit
 10992                           ;	DEBUG = 0x1, unprogrammed default
 10993                           ;	Flash Program Memory Code Protection bit
 10994                           ;	CP = 0x1, unprogrammed default
 10995     2007                     	org	8199
 10996     2007  3FFB               	dw	16379

Data Sizes:
    Strings     499
    Constant    0
    Data        31
    BSS         63
    Persistent  0
    Stack       0

Auto Spaces:
    Space          Size  Autos    Used
    COMMON           14     10      12
    BANK0            80     33      76
    BANK1            80      9      58
    BANK3            96      0       0
    BANK2            96      0       0

Pointer List with Targets:

    clcd_print@str	PTR const unsigned char  size(2) Largest target is 18
		 -> main@event(BANK1[3]), STR_10(CODE[17]), STR_12(CODE[17]), STR_13(CODE[17]), 
		 -> STR_17(CODE[9]), STR_18(CODE[10]), STR_19(CODE[13]), STR_20(CODE[15]), 
		 -> STR_21(CODE[9]), STR_22(CODE[17]), STR_23(CODE[17]), STR_24(CODE[17]), 
		 -> STR_25(CODE[17]), STR_26(CODE[16]), STR_27(CODE[17]), STR_28(CODE[17]), 
		 -> STR_29(CODE[17]), STR_30(CODE[17]), STR_31(CODE[17]), STR_32(CODE[13]), 
		 -> STR_33(CODE[13]), STR_41(CODE[17]), STR_42(CODE[17]), STR_43(CODE[18]), 
		 -> STR_44(CODE[18]), STR_45(CODE[17]), STR_46(CODE[14]), STR_47(CODE[17]), 
		 -> STR_48(CODE[7]), STR_49(CODE[16]), STR_50(CODE[13]), STR_51(CODE[13]), 
		 -> STR_52(CODE[3]), STR_53(CODE[3]), STR_54(CODE[3]), STR_9(CODE[17]), 

    display_dashboard@event	PTR unsigned char  size(1) Largest target is 3
		 -> main@event(BANK1[3]), 

    eeprom_at24c04_str_write@data	PTR unsigned char  size(2) Largest target is 11
		 -> change_password@new_pwd(BANK1[9]), log(BANK1[11]), STR_7(CODE[5]), 

    gear	PTR unsigned char [6] size(2) Largest target is 3
		 -> STR_1(CODE[3]), STR_2(CODE[3]), STR_3(CODE[3]), STR_4(CODE[3]), 
		 -> STR_5(CODE[3]), STR_6(CODE[3]), 

    log_car_event@event	PTR unsigned char  size(2) Largest target is 3
		 -> main@event(BANK1[3]), STR_11(CODE[3]), STR_14(CODE[3]), STR_15(CODE[3]), 
		 -> STR_16(CODE[3]), 

    menu	PTR unsigned char [5] size(2) Largest target is 15
		 -> STR_17(CODE[9]), STR_18(CODE[10]), STR_19(CODE[13]), STR_20(CODE[15]), 
		 -> STR_21(CODE[9]), 

    puts@s	PTR const unsigned char  size(2) Largest target is 36
		 -> STR_34(CODE[18]), STR_35(CODE[7]), STR_36(CODE[36]), STR_37(CODE[4]), 
		 -> STR_38(CODE[7]), STR_39(CODE[13]), 

    sp__strcpy	PTR unsigned char  size(1) Largest target is 3
		 -> main@event(BANK1[3]), 

    sp__strncpy	PTR unsigned char  size(1) Largest target is 11
		 -> change_password@new_pwd(BANK1[9]), log(BANK1[11]), 

    strcpy@d	PTR unsigned char  size(1) Largest target is 3
		 -> main@event(BANK1[3]), 

    strcpy@dest	PTR unsigned char  size(1) Largest target is 3
		 -> main@event(BANK1[3]), 

    strcpy@src	PTR const unsigned char  size(2) Largest target is 3
		 -> STR_1(CODE[3]), STR_2(CODE[3]), STR_3(CODE[3]), STR_4(CODE[3]), 
		 -> STR_5(CODE[3]), STR_6(CODE[3]), STR_8(CODE[3]), 

    strncmp@l	PTR const unsigned char  size(1) Largest target is 9
		 -> change_password@new_pwd(BANK1[9]), login@spassword(BANK0[4]), 

    strncmp@r	PTR const unsigned char  size(1) Largest target is 9
		 -> change_password@new_pwd(BANK1[9]), login@npassword(BANK1[4]), 

    strncpy@cp	PTR unsigned char  size(1) Largest target is 11
		 -> change_password@new_pwd(BANK1[9]), log(BANK1[11]), 

    strncpy@d	PTR unsigned char  size(1) Largest target is 11
		 -> change_password@new_pwd(BANK1[9]), log(BANK1[11]), 

    strncpy@s	PTR const unsigned char  size(2) Largest target is 7
		 -> main@event(BANK1[3]), STR_11(CODE[3]), STR_14(CODE[3]), STR_15(CODE[3]), 
		 -> STR_16(CODE[3]), STR_40(CODE[5]), time(BANK0[7]), 


Critical Paths under _main in COMMON

    _main->___lwdiv
    _main->_clear_log
    _main->_eeprom_at24c04_str_write
    _login->___lwdiv
    _clear_screen->_clcd_write
    _log_car_event->___awdiv
    _log_car_event->_strncpy
    _log_event->_eeprom_at24c04_str_write
    _init_uart->___lldiv
    _init_i2c->___lldiv
    _init_ds1307->_read_ds1307
    _init_clcd->_init_display_controller
    _init_display_controller->_clcd_write
    _download_log->_eeprom_at24c04_random_read
    _puts->_putchar
    _eeprom_at24c04_random_read->_i2c_read
    _display_dashboard->___awdiv
    _clear_log->_clcd_print
    _change_time->___lwdiv
    _write_ds1307->_i2c_write
    _get_time->_read_ds1307
    _read_ds1307->_i2c_read
    ___lwmod->___lwdiv
    ___lwdiv->_read_adc
    _change_password->_eeprom_at24c04_str_write
    _change_password->_strncpy
    _eeprom_at24c04_str_write->_eeprom_at24c04_byte_write
    _eeprom_at24c04_byte_write->_i2c_write
    _clcd_putch->___awdiv
    _clcd_putch->___lwdiv
    _clcd_print->_clcd_write

Critical Paths under _isr in COMMON

    None.

Critical Paths under _main in BANK0

    _main->_view_log
    _view_log->_clcd_putch
    _login_menu->_clcd_putch
    _login->_clcd_putch
    _log_car_event->_log_event
    _init_config->_init_i2c
    _init_config->_init_uart
    _init_uart->___lldiv
    _init_i2c->___lldiv
    _display_dashboard->_clcd_putch
    _display_time->_clcd_putch
    _change_time->_clcd_putch
    ___lwmod->___lwdiv
    _change_password->_clcd_putch
    _clcd_putch->___lwmod

Critical Paths under _isr in BANK0

    None.

Critical Paths under _main in BANK1

    None.

Critical Paths under _isr in BANK1

    None.

Critical Paths under _main in BANK3

    None.

Critical Paths under _isr in BANK3

    None.

Critical Paths under _main in BANK2

    None.

Critical Paths under _isr in BANK2

    None.

Call Graph Tables:

 ---------------------------------------------------------------------------------
 (Depth) Function   	        Calls       Base Space   Used Autos Params    Refs
 ---------------------------------------------------------------------------------
 (0) _main                                                12    12      0   19928
                                             30 BANK0      3     3      0
                                              0 BANK1      9     9      0
                            ___lwdiv
                    _change_password
                        _change_time
                         _clcd_print
                         _clcd_write
                          _clear_log
                       _clear_screen
                  _display_dashboard
                       _download_log
           _eeprom_at24c04_str_write
                        _init_config
                      _log_car_event
                              _login
                         _login_menu
                           _read_adc
                _read_digital_keypad
                             _strcpy
                           _view_log
 ---------------------------------------------------------------------------------
 (1) _view_log                                            20    19      1    1927
                                             10 BANK0     20    19      1
                             ___bmul
                         _clcd_print
                         _clcd_putch
         _eeprom_at24c04_random_read
 ---------------------------------------------------------------------------------
 (2) _strcpy                                               6     3      3     121
                                              2 COMMON     6     3      3
 ---------------------------------------------------------------------------------
 (1) _read_digital_keypad                                  1     1      0     161
                                              2 COMMON     1     1      0
 ---------------------------------------------------------------------------------
 (1) _read_adc                                             4     2      2      34
                                              2 COMMON     4     2      2
 ---------------------------------------------------------------------------------
 (1) _login_menu                                           4     3      1    1067
                                             10 BANK0      4     3      1
                         _clcd_print
                         _clcd_putch
                       _clear_screen
 ---------------------------------------------------------------------------------
 (1) _login                                               13    12      1    2486
                                             10 BANK0     13    12      1
                            ___lwdiv
                            ___lwmod
                         _clcd_print
                         _clcd_putch
                         _clcd_write
                       _clear_screen
         _eeprom_at24c04_random_read
                            _strncmp
 ---------------------------------------------------------------------------------
 (2) _clear_screen                                         2     2      0     141
                                              6 COMMON     2     2      0
                         _clcd_write
 ---------------------------------------------------------------------------------
 (1) _log_car_event                                        5     2      3    1953
                                              1 BANK0      5     2      3
                            ___awdiv
                            ___awmod
                           _get_time
                          _log_event
                            _strncpy
 ---------------------------------------------------------------------------------
 (2) _log_event                                            1     1      0     472
                                              0 BANK0      1     1      0
                             ___bmul
           _eeprom_at24c04_str_write
 ---------------------------------------------------------------------------------
 (1) _init_config                                          0     0      0    1098
                           _init_adc
                          _init_clcd
                _init_digital_keypad
                        _init_ds1307
                           _init_i2c
                        _init_timer2
                          _init_uart
 ---------------------------------------------------------------------------------
 (2) _init_uart                                            8     4      4     287
                                              6 BANK0      8     4      4
                            ___lldiv
 ---------------------------------------------------------------------------------
 (2) _init_timer2                                          0     0      0       0
 ---------------------------------------------------------------------------------
 (2) _init_i2c                                             8     4      4     287
                                              6 BANK0      8     4      4
                            ___lldiv
 ---------------------------------------------------------------------------------
 (3) ___lldiv                                             14     6      8     253
                                              2 COMMON     8     0      8
                                              0 BANK0      6     6      0
 ---------------------------------------------------------------------------------
 (2) _init_ds1307                                          1     1      0     383
                                              6 COMMON     1     1      0
                        _read_ds1307
                       _write_ds1307
 ---------------------------------------------------------------------------------
 (2) _init_digital_keypad                                  0     0      0       0
 ---------------------------------------------------------------------------------
 (2) _init_clcd                                            0     0      0     141
            _init_display_controller
 ---------------------------------------------------------------------------------
 (3) _init_display_controller                              2     2      0     141
                                              6 COMMON     2     2      0
                         _clcd_write
 ---------------------------------------------------------------------------------
 (2) _init_adc                                             0     0      0       0
 ---------------------------------------------------------------------------------
 (1) _download_log                                        19    19      0    1280
                                              6 COMMON     1     1      0
                                              0 BANK0     18    18      0
                             ___bmul
         _eeprom_at24c04_random_read
                            _putchar
                               _puts
 ---------------------------------------------------------------------------------
 (2) _puts                                                 2     0      2     130
                                              3 COMMON     2     0      2
                            _putchar
 ---------------------------------------------------------------------------------
 (3) _putchar                                              1     1      0      47
                                              2 COMMON     1     1      0
 ---------------------------------------------------------------------------------
 (2) _eeprom_at24c04_random_read                           2     2      0     212
                                              4 COMMON     2     2      0
                           _i2c_read
                      _i2c_rep_start
                          _i2c_start
                           _i2c_stop
                          _i2c_write
 ---------------------------------------------------------------------------------
 (2) ___bmul                                               3     2      1     180
                                              2 COMMON     3     2      1
 ---------------------------------------------------------------------------------
 (1) _display_dashboard                                    4     2      2    2359
                                             10 BANK0      4     2      2
                            ___awdiv
                            ___awmod
                         _clcd_print
                         _clcd_putch
                       _display_time
 ---------------------------------------------------------------------------------
 (2) _display_time                                         0     0      0     560
                         _clcd_putch
                           _get_time
 ---------------------------------------------------------------------------------
 (2) ___awmod                                              6     2      4     445
                                              2 COMMON     6     2      4
 ---------------------------------------------------------------------------------
 (2) ___awdiv                                              8     4      4     457
                                              2 COMMON     8     4      4
 ---------------------------------------------------------------------------------
 (1) _clear_log                                            1     1      0     494
                                              9 COMMON     1     1      0
                         _clcd_print
 ---------------------------------------------------------------------------------
 (1) _change_time                                          6     5      1    2201
                                             10 BANK0      6     5      1
                            ___lwdiv
                            ___lwmod
                             ___wmul
                         _clcd_print
                         _clcd_putch
                         _clcd_write
                           _get_time
                       _write_ds1307
 ---------------------------------------------------------------------------------
 (3) _write_ds1307                                         2     1      1     137
                                              3 COMMON     2     1      1
                          _i2c_start
                           _i2c_stop
                          _i2c_write
 ---------------------------------------------------------------------------------
 (2) _get_time                                             1     1      0     209
                                              6 COMMON     1     1      0
                        _read_ds1307
 ---------------------------------------------------------------------------------
 (3) _read_ds1307                                          2     2      0     209
                                              4 COMMON     2     2      0
                           _i2c_read
                      _i2c_rep_start
                          _i2c_start
                           _i2c_stop
                          _i2c_write
 ---------------------------------------------------------------------------------
 (3) _i2c_rep_start                                        0     0      0       0
                          _i2c_start
                           _i2c_stop
 ---------------------------------------------------------------------------------
 (3) _i2c_read                                             2     2      0      81
                                              2 COMMON     2     2      0
                  _i2c_wait_for_idle
 ---------------------------------------------------------------------------------
 (2) ___wmul                                               6     2      4     154
                                              2 COMMON     6     2      4
 ---------------------------------------------------------------------------------
 (2) ___lwmod                                              5     1      4     280
                                              3 BANK0      5     1      4
                            ___lwdiv (ARG)
 ---------------------------------------------------------------------------------
 (2) ___lwdiv                                              7     3      4     293
                                              6 COMMON     4     0      4
                                              0 BANK0      3     3      0
                           _read_adc (ARG)
 ---------------------------------------------------------------------------------
 (1) _change_password                                      5     4      1    1779
                                             10 BANK0      5     4      1
                         _clcd_print
                         _clcd_putch
                         _clcd_write
           _eeprom_at24c04_str_write
                            _strncmp
                            _strncpy
 ---------------------------------------------------------------------------------
 (3) _strncpy                                              8     3      5     229
                                              2 COMMON     8     3      5
 ---------------------------------------------------------------------------------
 (2) _strncmp                                              6     2      4     275
                                              2 COMMON     6     2      4
 ---------------------------------------------------------------------------------
 (3) _eeprom_at24c04_str_write                             3     1      2     255
                                              7 COMMON     3     1      2
          _eeprom_at24c04_byte_write
 ---------------------------------------------------------------------------------
 (4) _eeprom_at24c04_byte_write                            4     3      1     128
                                              3 COMMON     4     3      1
                          _i2c_start
                           _i2c_stop
                          _i2c_write
 ---------------------------------------------------------------------------------
 (3) _i2c_write                                            1     1      0      47
                                              2 COMMON     1     1      0
                  _i2c_wait_for_idle
 ---------------------------------------------------------------------------------
 (3) _i2c_stop                                             0     0      0       0
                  _i2c_wait_for_idle
 ---------------------------------------------------------------------------------
 (3) _i2c_start                                            0     0      0       0
                  _i2c_wait_for_idle
 ---------------------------------------------------------------------------------
 (4) _i2c_wait_for_idle                                    0     0      0       0
 ---------------------------------------------------------------------------------
 (2) _clcd_putch                                           2     1      1     351
                                              8 BANK0      2     1      1
                            ___awdiv (ARG)
                            ___awmod (ARG)
                            ___lwdiv (ARG)
                            ___lwmod (ARG)
                         _clcd_write
 ---------------------------------------------------------------------------------
 (2) _clcd_print                                           3     0      3     447
                                              6 COMMON     3     0      3
                         _clcd_write
 ---------------------------------------------------------------------------------
 (3) _clcd_write                                           4     3      1     141
                                              2 COMMON     4     3      1
 ---------------------------------------------------------------------------------
 Estimated maximum stack depth 4
 ---------------------------------------------------------------------------------
 (Depth) Function   	        Calls       Base Space   Used Autos Params    Refs
 ---------------------------------------------------------------------------------
 (8) _isr                                                  2     2      0       0
                                              0 COMMON     2     2      0
 ---------------------------------------------------------------------------------
 Estimated maximum stack depth 8
 ---------------------------------------------------------------------------------

 Call Graph Graphs:

 _main (ROOT)
   ___lwdiv
     _read_adc (ARG)
   _change_password
     _clcd_print
       _clcd_write
     _clcd_putch
       ___awdiv (ARG)
       ___awmod (ARG)
       ___lwdiv (ARG)
       ___lwmod (ARG)
         ___lwdiv (ARG)
       _clcd_write (ARG)
     _clcd_write
     _eeprom_at24c04_str_write
       _eeprom_at24c04_byte_write
         _i2c_start
           _i2c_wait_for_idle
         _i2c_stop
           _i2c_wait_for_idle
         _i2c_write
           _i2c_wait_for_idle
     _strncmp
     _strncpy
   _change_time
     ___lwdiv
     ___lwmod
     ___wmul
     _clcd_print
     _clcd_putch
     _clcd_write
     _get_time
       _read_ds1307
         _i2c_read
           _i2c_wait_for_idle
         _i2c_rep_start
           _i2c_start
           _i2c_stop
         _i2c_start
         _i2c_stop
         _i2c_write
     _write_ds1307
       _i2c_start
       _i2c_stop
       _i2c_write
   _clcd_print
   _clcd_write
   _clear_log
     _clcd_print
   _clear_screen
     _clcd_write
   _display_dashboard
     ___awdiv
     ___awmod
     _clcd_print
     _clcd_putch
     _display_time
       _clcd_putch
       _get_time
   _download_log
     ___bmul
     _eeprom_at24c04_random_read
       _i2c_read
       _i2c_rep_start
       _i2c_start
       _i2c_stop
       _i2c_write
     _putchar
     _puts
       _putchar
   _eeprom_at24c04_str_write
   _init_config
     _init_adc
     _init_clcd
       _init_display_controller
         _clcd_write
     _init_digital_keypad
     _init_ds1307
       _read_ds1307
       _write_ds1307
     _init_i2c
       ___lldiv
     _init_timer2
     _init_uart
       ___lldiv
   _log_car_event
     ___awdiv
     ___awmod
     _get_time
     _log_event
       ___bmul
       _eeprom_at24c04_str_write
     _strncpy
   _login
     ___lwdiv
     ___lwmod
     _clcd_print
     _clcd_putch
     _clcd_write
     _clear_screen
     _eeprom_at24c04_random_read
     _strncmp
   _login_menu
     _clcd_print
     _clcd_putch
     _clear_screen
   _read_adc
   _read_digital_keypad
   _strcpy
   _view_log
     ___bmul
     _clcd_print
     _clcd_putch
     _eeprom_at24c04_random_read

 _isr (ROOT)

Address spaces:
Name               Size   Autos  Total    Usage
BANK3               96      0       0      0.0%
BITBANK3            96      0       0      0.0%
BANK2               96      0       0      0.0%
BITBANK2            96      0       0      0.0%
BANK1               80      9      58     72.5%
BITBANK1            80      0       0      0.0%
BANK0               80     33      76     95.0%
BITBANK0            80      0       0      0.0%
COMMON              14     10      12     85.7%
BITCOMMON           14      0       0      0.0%
DATA                 0      0     141      0.0%
STACK                0      0       0      0.0%


Microchip Technology PIC Macro Assembler V2.50 build 20240725155939 
Symbol Table                                                                                   Fri Nov 01 19:11:36 2024

                                      pc 0002                           ___bmul@product 0073  
                         clcd_print@addr 0078                                       l20 1742  
                                     l23 118A                                       l32 13D3  
                                     l17 126B                                       l26 1214  
                                     l52 134E                                       l55 124B  
                                     l49 11C7                                       l90 1197  
                                     l84 1435                                       l93 1155  
                                     l87 118B                                       l96 1174  
                                     _GO 00FA                                       l99 115E  
                           ___awdiv@sign 0077                                       fsr 0004  
                    ___wmul@multiplicand 0074                       login_menu@menu_pos 003C  
                                    l102 1287                                      l103 128A  
                                    l104 128C                                      l122 1144  
                                    l107 1169                                      l125 11CB  
                                    l205 0227                                      l310 11B5  
                                    l222 037A                                      l304 1520  
                                    l128 11D9                                      l321 0FFF  
                                    l225 0238                                      l234 028A  
                                    l307 179C                                      l235 028F  
                                    l227 024E                                      l340 0A65  
                                    l236 0294                                      l333 0F9C  
                                    l237 0299                                      l422 0649  
                                    l246 032A                                      l360 0CC1  
                                    l187 14E1                                      l364 1379  
                                    l444 1137                                      l293 1640  
                                    l533 1403                                      l390 0E5E  
                                    l374 0B81                                      l543 117A  
                                    l551 12F8                                      l480 06FC  
                                    l296 0948                                      l544 117E  
                                    l545 117F                                      l457 06D5  
                                    l803 16EB                                      l299 1694  
                                    l637 12BA                                      l477 13A4  
                                    l486 1323                                      l639 12D2  
                                    l663 11EC                                      l673 09AE  
                                    l499 11A4                                      l917 15A8  
                                    l790 17FF                                      l927 14A7  
                                    _GIE 005F                                      _RE1 0049  
                                    _RE2 004A                                      _PR2 0092  
                                    _PEN 048A                                      _SEN 0488  
                          ?_display_time 0070                            log_event@addr 0045  
                                    _log 00B9                                      _sec 0035  
                                    _isr 1436                           clcd_putch@addr 004D  
                                    _pos 0068                                      fsr0 0004  
                         clcd_putch@data 004E                                      indf 0000  
                           ___awmod@sign 0077         __end_of_eeprom_at24c04_str_write 1324  
                     log_car_event@event 0046                       log_car_event@speed 0048  
             change_password@pwd_changed 007B                                     l1103 15F3  
                                   l1118 1564                                     l4000 17B6  
                  ??_read_digital_keypad 0072                                     l4010 17CC  
                                   l4002 17BC                                     l1099 12AD  
                                   l4100 1482                                     l4012 17DD  
                                   l4004 17BF                                     l4020 17F1  
                                   l4102 1486                                     l4110 14A3  
                                   l4022 17F6                                     l4014 17E3  
                                   l4006 17C6                                     l4030 1696  
                                   l4104 1490                                     l4024 17FB  
                                   l4016 17E4                                     l4008 17C8  
                                   l4040 16AA                                     l4032 169A  
                                   l4120 14A8                                     l4200 06D4  
                                   l4106 1496                                     l4018 17EB  
                                   l4050 16C0                                     l4042 16B0  
                                   l4034 169F                                     l4210 0A6C  
                                   l4130 14D0                                     l4122 14AD  
                                   l4114 11C8                                     l4108 149D  
                                   l4060 16E2                                     l4052 16CA  
                                   l4044 16B3                                     l4036 16A1  
                                   l4028 1695                                     l4220 0A88  
                                   l4212 0A6D                                     l4132 14DF  
                                   l4124 14B2                                     l4140 1757  
                                   l4300 0E8C                                     l4116 11CF  
                                   l4204 128D                                     l4070 156F  
                                   l4062 16E7                                     l4054 16D0  
                                   l4046 16BA                                     l4038 16A5  
                                   l4222 0A8E                                     l4214 0A6D  
                                   l4134 14E0                                     l4126 14C1  
                                   l4142 1796                                     l4310 0EAD  
                                   l4302 0E94                                     l4150 0650  
                                   l4206 128F                                     l4080 1590  
                                   l4072 1572                                     l4056 16D7  
                                   l4048 16BC                                     l4240 0AD8  
                                   l4224 0AA4                                     l4216 0A75  
                                   l4208 0A66                                     l4128 14C6  
                                   l4144 1797                                     l4136 1743  
                                   l4304 0E9A                                     l4312 0EB0  
                                   l4400 09C2                                     l4152 0656  
                                   l4160 0662                                     l4082 1596  
                                   l4074 1579                                     l4066 1565  
                                   l4058 16DD                                     l4250 0B07  
                                   l4242 0AE5                                     l4234 0AB6  
                                   l4226 0AAE                                     l4218 0A7F  
                                   l4138 1748                                     l4314 0EB6  
                                   l4306 0EA0                                     l4410 09D8  
                                   l4402 09C7                                     l4162 0668  
                                   l4154 065B                                     l4146 064A  
                                   l3700 118B                                     l4500 0CD2  
                                   l4084 1597                                     l4076 157B  
                                   l4068 1569                                     l4092 146E  
                                   l4260 0B2B                                     l4252 0B0D  
                                   l4244 0AEE                                     l4236 0AC5  
                                   l4228 0AB4                                     l4340 0F09  
                                   l4332 0ED4                                     l4316 0EBC  
                                   l4324 0ECC                                     l4308 0EA9  
                                   l4404 09CF                                     l4412 09DE  
                                   l4180 06A1                                     l4164 066D  
                                   l4172 067F                                     l4156 065D  
                                   l4148 064E                                     l3702 1191  
                                   l3710 115B                                     l4510 0CF5  
                                   l4502 0CD4                                     l4086 159E  
                                   l4078 157F                                     l4094 1476  
                                   l4270 0B65                                     l4262 0B33  
                                   l4254 0B15                                     l4246 0AF7  
                                   l4238 0AD0                                     l4350 0F18  
                                   l4334 0EE1                                     l4326 0ED2  
                                   l4318 0EC2                                     l4430 0A2A  
                                   l4414 09E4                                     l4422 09EF  
                                   l4406 09D4                                     l4182 06AA  
                                   l4190 06B8                                     l4174 0684  
                                   l4166 066E                                     l4158 065F  
                                   l3704 114D                                     l3712 1160  
                                   l4520 0CFF                                     l4512 0CF6  
                                   l4504 0CDC                                     l4088 15A4  
                                   l4096 1479                                     l3720 116A  
                                   l3800 163B                                     l4280 1651  
                                   l4272 0B6B                                     l4264 0B4C  
                                   l4256 0B1D                                     l4248 0AFF  
                                   l4360 0F94                                     l4352 0F1D  
                                   l4336 0EE9                                     l4432 0A30  
                                   l4424 09F7                                     l4416 09EA  
                                   l4408 09D6                                     l4192 06BD  
                                   l4184 06B0                                     l4176 0693  
                                   l4168 067B                                     l4440 0B85  
                                   l3706 1152                                     l3714 1165  
                                   l4602 0E40                                     l4530 0D1E  
                                   l4522 0D04                                     l4506 0CE2  
                                   l4514 0CF8                                     l4098 1480  
                                   l3730 1283                                     l3722 126D  
                                   l3802 163F                                     l3810 11E0  
                                   l4266 0B55                                     l4258 0B23  
                                   l4274 0B71                                     l4370 0FD4  
                                   l4354 0F2B                                     l4362 0F9F  
                                   l4346 0F0B                                     l4338 0EF6  
                                   l4290 0E75                                     l4282 0E62  
                                   l4434 0A58                                     l4426 09FF  
                                   l4418 09EC                                     l4194 06C6  
                                   l4178 069C                                     l4450 0BAD  
                                   l4442 0B86                                     l3740 1259  
                                   l3708 1156                                     l3716 1169  
                                   l4604 0E47                                     l4540 0D57  
                                   l4532 0D25                                     l4516 0CFD  
                                   l4508 0CF1                                     l3732 128B  
                                   l3724 1272                                     l4700 055B  
                                   l4620 0385                                     l4276 1641  
                                   l3812 11E2                                     l3804 1176  
                                   l4268 0B5D                                     l3820 0949  
                                   l3900 1509                                     l4380 0FF0  
                                   l4372 0FD9                                     l4364 0FA4  
                                   l4356 0F36                                     l4348 0F14  
                                   l4284 0E68                                     l4292 0E77  
                                   l4436 0A62                                     l4428 0A14  
                                   l4196 06CC                                     l4460 0BDD  
                                   l4452 0BB3                                     l4444 0B8E  
                                   l3742 125F                                     l3750 06D7  
                                   l4606 0E52                                     l4550 0D83  
                                   l4542 0D62                                     l4534 0D2F  
                                   l4526 0D06                                     l3726 127A  
                                   l4702 0566                                     l4630 03FE  
                                   l4622 038B                                     l4278 164C  
                                   l3814 11E4                                     l3806 11DB  
                                   l3830 0976                                     l3822 095B  
                                   l3902 1518                                     l4382 0FF7  
                                   l4374 0FE4                                     l4366 0FAF  
                                   l4358 0F42                                     l4294 0E7C  
                                   l4286 0E6A                                     l4390 09B7  
                                   l4462 0BEA                                     l4454 0BC1  
                                   l4446 0BA5                                     l3736 124D  
                                   l3752 06F3                                     l3912 1549  
                                   l3904 1521                                     l4560 0DA9  
                                   l4552 0D8C                                     l4544 0D69  
                                   l4528 0D13                                     l4536 0D39  
                                   l3728 127E                                     l3744 1325  
                                   l4704 0576                                     l4632 03FF  
                                   l4624 03EC                                     l3816 11EB  
                                   l3808 11DC                                     l3920 137B  
                                   l3760 170B                                     l3832 0988  
                                   l3824 095E                                     l3840 09A6  
                                   l4376 0FE7                                     l4368 0FC5  
                                   l4384 0FFE                                     l4288 0E73  
                                   l4480 0C27                                     l4464 0BF2  
                                   l4456 0BC9                                     l4448 0BAB  
                                   l4800 0156                                     l3738 1257  
                                   l3914 1550                                     l3906 1524  
                                   l4570 0DC9                                     l4562 0DAF  
                                   l4554 0D94                                     l4546 0D73  
                                   l4538 0D48                                     l3746 134D  
                                   l4714 058E                                     l4650 0466  
                                   l4642 0409                                     l4634 0400  
                                   l4626 03F7                                     l4490 136C  
                                   l3930 1391                                     l3922 137B  
                                   l3770 172D                                     l3762 1710  
                                   l3754 16EC                                     l3850 1185  
                                   l3834 0996                                     l3826 0969  
                                   l4378 0FE9                                     l4298 0E7E  
                                   l4394 09B9                                     l4482 0C34  
                                   l4474 0C05                                     l4466 0BFD  
                                   l4458 0BD5                                     l4810 0172  
                                   l4802 015B                                     l4730 0044  
                                   l3852 13A5                                     l3780 12FB  
                                   l3940 15A9                                     l3916 1554  
                                   l3908 152A                                     l4580 0DFB  
                                   l4564 0DB8                                     l4556 0D96  
                                   l4548 0D7D                                     l4708 0582  
                                   l4716 059E                                     l4660 04E6  
                                   l4652 046E                                     l4644 0415  
                                   l4628 03FD                                     l4636 0402  
                                   l3932 1397                                     l3924 1380  
                                   l3772 1736                                     l3764 1717  
                                   l3756 16F4                                     l3844 1180  
                                   l3860 11B6                                     l3836 0997  
                                   l3828 096D                                     l4396 09BF  
                                   l4388 09B2                                     l4484 0CB7  
                                   l4476 0C14                                     l4468 0C03  
                                   l4900 029E                                     l4820 019A  
                                   l4812 0176                                     l4804 0166  
                                   l4740 005A                                     l4732 004A  
                                   l3854 13AD                                     l3774 1203  
                                   l3782 130B                                     l3942 15B7  
                                   l3950 15C4                                     l3918 1556  
                                   l4590 0E22                                     l4582 0DFE  
                                   l4566 0DC0                                     l4558 0D9D  
                                   l4574 0DD5                                     l3790 160F  
                                   l4670 0516                                     l4662 04ED  
                                   l4654 049E                                     l4646 042D  
                                   l4638 0407                                     l4494 1378  
                                   l4486 1350                                     l3934 139E  
                                   l3926 1386                                     l3766 171A  
                                   l3758 16FB                                     l3846 1183  
                                   l3862 11BD                                     l3838 09A0  
                                   l3870 1432                                     l4398 09C1  
                                   l4478 0C1F                                     l4910 02EC  
                                   l4902 02BD                                     l4830 01BF  
                                   l4822 01A5                                     l4814 0179  
                                   l4806 016A                                     l4750 0092  
                                   l4742 0066                                     l4734 004A  
                                   l3856 13BD                                     l3784 1311  
                                   l3952 15CC                                     l4592 0E2D  
                                   l4584 0E08                                     l4568 0DC2  
                                   l4576 0DDF                                     l3792 161B  
                                   l3776 122F                                     l4680 052C  
                                   l4664 04F8                                     l4656 04DA  
                                   l4648 0462                                     l4488 1366  
                                   l3936 13A3                                     l3928 138C  
                                   l3872 113E                                     l3768 1721  
                                   l3848 1184                                     l3864 11BF  
                                   l3880 13D8                                     l4920 0318  
                                   l4912 02FD                                     l4904 02CA  
                                   l4840 01CE                                     l4832 01C4  
                                   l4824 01AA                                     l4816 017E  
                                   l4808 016D                                     l4760 00D4  
                                   l4752 00AF                                     l4744 0082  
                                   l4736 004B                                     l4728 0040  
                                   l3858 13C3                                     l3786 1313  
                                   l3778 12FA                                     l3954 15D3  
                                   l3946 15BA                                     l4594 0E2F  
                                   l4586 0E10                                     l4578 0DE8  
                                   l4498 0CC5                                     l3970 12AE  
                                   l3794 161F                                     l4690 0544  
                                   l4682 052E                                     l4666 0503  
                                   l4658 04DE                                     l3962 12D3  
                                   l3874 1132                                     l3866 1404  
                                   l3890 14E2                                     l3882 11A5  
                                   l4930 0331                                     l4914 0301  
                                   l4906 02D5                                     l4842 01DF  
                                   l4826 01B8                                     l4818 018F  
                                   l4850 01F7                                     l4754 00B5  
                                   l4762 00E6                                     l4746 0084  
                                   l4738 0050                                     l3956 15D9  
                                   l3948 15BE                                     l4596 0E3E  
                                   l4588 0E17                                     l3980 12CE  
                                   l3972 12B0                                     l3796 162B  
                                   l3788 15F4                                     l4692 054C  
                                   l4684 0537                                     l4668 0507  
                                   l4676 0518                                     l3964 12D4  
                                   l3868 1407                                     l3876 1198  
                                   l3892 14EA                                     l3884 11AC  
                                   l4932 0344                                     l4916 0303  
                                   l4908 02E4                                     l4860 0211  
                                   l4852 01FD                                     l4844 01E3  
                                   l4828 01BC                                     l4780 011F  
                                   l4764 00EC                                     l4772 0109  
                                   l4756 00BB                                     l4940 0361  
                                   l4748 008C                                     l3958 15E5  
                                   l3974 12B4                                     l3798 162F  
                                   l4694 054D                                     l4686 0539  
                                   l4678 0523                                     l3990 17A7  
                                   l3886 08F3                                     l3966 12E2  
                                   l3878 13D4                                     l3894 14F1  
                                   l4934 0355                                     l4918 0309  
                                   l4870 0224                                     l4854 0203  
                                   l4838 01C9                                     l4790 0143  
                                   l4782 012A                                     l4774 010F  
                                   l4766 00F1                                     l4758 00D0  
                                   l3976 12C1                                     l4696 0555  
                                   l4688 0542                                     l3992 17A9  
                                   l3984 179D                                     l3968 12E8  
                                   l3896 14F3                                     l3888 14E2  
                                   l4936 035B                                     l4880 0257  
                                   l4856 0205                                     l4848 01E6  
                                   l4792 0145                                     l4784 0131  
                                   l4776 0115                                     l4768 00F3  
                                   _ADFM 04FF                                     l3978 12C8  
                                   l3994 17AD                                     l3986 179E  
                                   l3898 14FF                                     l4890 0279  
                                   l4882 025E                                     l4874 0228  
                                   l4866 0218                                     l4858 020B  
                                   l4786 0138                                     l4778 011A  
                                   l4794 0149                                     l4972 0593  
                                   l3996 17B2                                     l3988 17A2  
                                   l4892 027E                                     l4876 023F  
                                   l4868 021E                                     l4796 014F  
                                   l4788 013F                                     ?_isr 0070  
                                   l3998 17B4                                     l4894 0282  
                                   l4878 0246                                     l4896 0286  
                                   l4888 0266                                     _ADON 00F8  
                                   STR_1 08E4                                     STR_2 08ED  
                                   STR_3 08D2                                     STR_4 08D5  
                                   STR_5 08D8                                     STR_6 08DB  
                                   STR_7 08CD                                     STR_8 08E7  
                                   STR_9 0814                                     _CREN 00C4  
                                   u4000 11CF                                     u4001 11CE  
                                   u4010 0656                                     u4011 0655  
                                   u4100 06B0                                     u4020 065B  
                                   u4101 06AF                                     u4021 065A  
                                   u3310 1191                                     u4110 06BD  
                                   u4030 0668                                     u3311 1190  
                                   u4111 06BC                                     u4031 0667  
                                   u3320 1197                                     u3400 117E  
                                   u4200 0E94                                     u4120 06C6  
                                   u4040 066D                                     u3321 1196  
                                   u3401 117D                                     u4201 0E93  
                                   u4121 06C5                                     u4041 066C  
                                   u3330 1283                                     u3410 11E0  
                                   u4210 0E9A                                     u4130 06CC  
                                   u4050 067B                                     u3331 1282  
                                   u3411 11DF                                     u4211 0E99  
                                   u4131 06CB                                     u4051 067A  
                                   u3340 1254                                     u3500 13D3  
                                   u3420 11EB                                     u4220 0EB6  
                                   u4300 09BF                                     u4060 0684  
                                   u4140 12AD                                     u3341 1250  
                                   u3501 13D2                                     u3421 11EA  
                                   u4221 0EB5                                     u4301 09BE  
                                   u4061 0683                                     u4141 12AC  
                                   u4150 0A75                                     u3430 095B  
                                   u3510 1415                                     u4230 0EBC  
                                   u4310 09CF                                     u4070 0693  
                                   u4151 0A74                                     u3431 095A  
                                   u5007 0F28                                     u4231 0EBB  
                                   u4311 09CE                                     u4071 0692  
                                   u4055 0677                                     u3360 1323  
                                   u3600 15D3                                     u4160 0AE5  
                                   u3520 13E6                                     u4240 0ED2  
                                   u4320 09D4                                     u4080 06A1  
                                   u4400 0BC1                                     u3361 1322  
                                   u3601 15D2                                     u4161 0AE4  
                                   u5017 0FCD                                     u4241 0ED1  
                                   u4321 09D3                                     u4081 06A0  
                                   u4401 0BC0                                     u3354 1257  
                                   u3610 15D9                                     u4170 0B81  
                                   u3450 096D                                     u3530 14F1  
                                   u4250 0EF6                                     u4330 09E4  
                                   u4090 06AA                                     u4410 0BDD  
                                   u3611 15D8                                     u5107 050F  
                                   u4171 0B80                                     u3451 096C  
                                   u3515 1410                                     u3531 14F0  
                                   u5027 0FFB                                     u4251 0EF5  
                                   u4331 09E3                                     u4091 06A9  
                                   u4075 068F                                     u4411 0BDC  
                                   u3620 15E5                                     u4500 0D04  
                                   u3700 17BC                                     u3540 1518  
                                   u4260 0F09                                     u4180 0E68  
                                   u4340 09EA                                     u4420 0BEA  
                                   u3621 15E4                                     u4501 0D03  
                                   u5117 056E                                     u3701 17BB  
                                   u4165 0AE1                                     u3445 0960  
                                   u3525 13E1                                     u3541 1517  
                                   u5037 11B0                                     u4261 0F08  
                                   u4181 0E67                                     u4341 09E9  
                                   u4421 0BE9                                     u4405 0BBD  
                                   u3550 1548                                     u4510 0D13  
                                   u3630 12F8                                     u3470 0988  
                                   u4270 0F14                                     u4190 0E7C  
                                   u4350 09F7                                     u4430 0C34  
                                   u3551 1547                                     u5127 0E37  
                                   u4511 0D12                                     u3375 1612  
                                   u3631 12F7                                     u4175 0B7D  
                                   u5047 16F0                                     u3471 0987  
                                   u4271 0F13                                     u4255 0EF2  
                                   u4191 0E7B                                     u4351 09F6  
                                   u4431 0C33                                     u3560 154F  
                                   u4520 0D25                                     u3640 12B4  
                                   u4600 038B                                     u4440 136C  
                                   u3720 17CC                                     u3800 16B0  
                                   u4280 0F9C                                     u4360 0A30  
                                   u5137 06F7                                     u3561 154E  
                                   u4521 0D24                                     u3641 12B3  
                                   u3385 1622                                     u4601 038A  
                                   u4441 136B                                     u3721 17CB  
                                   u3801 16AF                                     u5057 16FF  
                                   u3465 096F                                     u3545 1514  
                                   u4281 0F9B                                     u4361 0A2F  
                                   u4425 0BE6                                     u3570 1564  
                                   u4530 0D48                                     u4450 0CD2  
                                   u4610 0407                                     u3490 09A6  
                                   u4290 09B7                                     u4370 0B8E  
                                   u5147 125C                                     u3571 1563  
                                   u4531 0D47                                     u4515 0D0F  
                                   u4451 0CD1                                     u3395 1632  
                                   u4611 0406                                     u3715 17C0  
                                   u5067 170D                                     u3491 09A5  
                                   u3475 0984                                     u4291 09B6  
                                   u4435 0C30                                     u4371 0B8D  
                                   _PEIE 005E                                     u3580 15B7  
                                   u4540 0D57                                     u4460 0CDA  
                                   u4700 0554                                     u3740 17DD  
                                   u3820 16C0                                     u4380 0BAB  
                                   u5157 1266                                     u3581 15B6  
                                   u4541 0D56                                     u4461 0CD8  
                                   u3741 17DC                                     u3821 16BF  
                                   u5077 1723                                     u3485 0998  
                                   u4381 0BAA                                     u3590 15CC  
                                   u4550 0D69                                     u4470 0CDB  
                                   u3910 1590                                     u3670 12CE  
                                   u4710 055A                                     u3830 16CA  
                                   u4390 0BB3                                     u3591 15CB  
                                   u4551 0D68                                     u4535 0D44  
                                   u3911 158F                                     u3671 12CD  
                                   u3655 12BB                                     u4711 0559  
                                   u3735 17CD                                     u3831 16C9  
                                   u3815 16B4                                     u5087 1731  
                                   u4391 0BB2                                     u4560 0D9D  
                                   u4480 0CE2                                     u3760 17F1  
                                   u3680 17A2                                     u4800 011A  
                                   u4720 0082                                     u4561 0D9C  
                                   u4545 0D53                                     u4481 0CE1  
                                   u3905 1580                                     u3665 12C2  
                                   u4625 0459                                     u3761 17F0  
                                   u3745 17D9                                     u3681 17A1  
                                   u5097 173F                                     u4801 0119  
                                   u4721 0081                                     u4570 0DC9  
                                   u4490 0CFD                                     u3930 15A4  
                                   u4650 052C                                     u3770 17F6  
                                   u3690 17AD                                     u3850 16DD  
                                   u4810 014F                                     u4730 0092  
                                   u4571 0DC8                                     u4491 0CFC  
                                   u3931 15A3                                     u3915 158C  
                                   u4651 052B                                     u4635 0495  
                                   u3771 17F5                                     u3755 17E5  
                                   u3691 17AC                                     u3851 16DC  
                                   u3835 16C6                                     u4811 014E  
                                   u4731 0091                                     u4580 0DE8  
                                   u3940 1476                                     u4660 0537  
                                   u3860 16E2                                     u3780 169A  
                                   u4900 02EC                                     u4820 0155  
                                   u4740 00B5                                     _RCEN 048B  
                                   _RCIF 0065                                     u4581 0DE7  
                                   u3925 1598                                     u3941 1475  
                                   u4661 0536                                     u4645 04D1  
                                   u3861 16E1                                     u3845 16D1  
                                   u3781 1699                                     u4901 02EB  
                                   u4821 0154                                     u4741 00B4  
                                   u4590 0DFB                                     u3870 156F  
                                   u4670 0542                                     u3790 16A5  
                                   u4910 0355                                     u4830 01FD  
                                   u4750 00BB                                     u4591 0DFA  
                                   u3871 156E                                     u4671 0541  
                                   u3791 16A4                                     u4911 0354  
                                   u4831 01FC                                     u4751 00BA  
                                   u3960 1486                                     u4680 054C  
                                   u4840 0203                                     u4760 00EC  
                                   u3961 1485                                     u4681 054B  
                                   u4841 0202                                     u4761 00EB  
                                   u3890 157F                                     u3970 1490  
                                   u4690 0553                                     u4850 0211  
                                   u4770 00F1                                     u3891 157E  
                                   u3971 148F                                     u3955 147A  
                                   u4691 0551                                     u4851 0210  
                                   u4771 00F0                                     u4860 0217  
                                   u4780 010F                                     u3885 1573  
                                   u4861 0216                                     u4781 010E  
                                   u3990 14A3                                     u4870 021E  
                                   u4790 0115                                     u3991 14A2  
                                   u3975 148C                                     u4871 021D  
                                   u4927 013C                                     u4791 0114  
                                   u4880 0224                                     u3985 1497  
                                   u4881 0223                                     u4937 01B2  
                                   u4890 02D5                                     u4891 02D4  
                                   u4947 024A                                     u4957 0262  
                                   u4967 02DD                                     u4977 0311  
                                   u4987 0CBD                                     u4997 0E86  
                                   _SPEN 00C7                                     _TXIF 0064  
                                   _R_nW 04A2                                     _gear 00A0  
                                   _main 0040                                     _menu 00AC  
                                   _time 003E                                     btemp 007E  
                                   _puts 12D3                                     start 000C  
                  clear_log@reset_memory 0079                        ___bmul@multiplier 0074  
                    view_log@reset_index 004F                           clcd_write@byte 0075  
                         clcd_write@mode 0072                            _i2c_rep_start 116A  
                                  ??_isr 0070                             ?_init_ds1307 0070  
                                  ?_main 0070                             ?_read_ds1307 0070  
                                  _ACKEN 048C                                    _ACKDT 048D  
                         ??_display_time 007A                          __end_of___awdiv 1800  
                                  STR_10 07F2                                    STR_11 08E1  
                                  STR_12 07E1                                    STR_20 0845  
                                  STR_13 0803                                    STR_21 08AD  
                                  STR_30 0725                                    STR_14 08F0  
                                  STR_22 077B                                    STR_31 0725  
                                  STR_15 08DE                                    STR_23 079D  
                                  STR_40 0731                                    STR_16 08EA  
                                  STR_32 086F                                    STR_24 07D0  
                                  STR_33 0896                                    STR_25 076A  
                                  STR_41 0759                                    STR_17 08B6  
                                  STR_50 0862                                    STR_26 0835  
                                  STR_42 07AE                                    STR_34 0736  
                                  STR_18 08A3                                    STR_27 0814  
                                  STR_35 08BF                                    STR_51 0889  
                                  STR_43 0724                                    STR_19 087C  
                                  STR_52 0733                                    STR_28 0725  
                                  STR_44 0724                                    STR_36 0700  
                        __end_of___awmod 16EC                                    STR_53 0733  
                                  STR_37 0732                                    STR_45 078C  
                                  STR_29 0748                                    STR_54 0733  
                                  STR_38 072F                                    STR_46 0854  
                                  STR_39 0729                                    STR_47 07BF  
                                  STR_48 08C6                                    STR_49 0825  
                                  ?_puts 0073                          __end_of___lldiv 09AF  
                            i2c_read@ack 0072                          ___awdiv@divisor 0072  
                        __end_of___lwdiv 15A9                          __end_of___lwmod 14A8  
                                  i1l516 1467                             ?_init_config 0070  
                        ___awdiv@counter 0076                                    _RCREG 001A  
                                  _SPBRG 0099                                    _PORTB 0006  
                                  _PORTD 0008                                    _SSPM3 00A3  
                                  _TRISB 0086                                    _TRISD 0088  
                                  _SSPEN 00A5                                    _TXREG 0019  
                           ?_init_timer2 0070                             main@menu_pos 00D1  
                                  _nDONE 00FA                     __end_of_clear_screen 11B6  
                                  _login 0E5F                          _change_password 0CC2  
                                  pclath 000A                     login_menu@reset_flag 004F  
     eeprom_at24c04_str_write@memory_loc 0079                                    puts@s 0073  
                        __end_of_putchar 1180                                    status 0003  
                                  wtemp0 007E                          __end_of_strncmp 15F4  
                        __end_of_strncpy 1565  eeprom_at24c04_random_read@received_data 0075  
                       init_ds1307@dummy 0076                          __initialization 000F  
                         ?_i2c_rep_start 0070                             __end_of_main 0382  
                           __end_of_puts 12F9                           login@npassword 00CD  
                       __end_of_i2c_read 128D                         __end_of_i2c_stop 115F  
                          ?_download_log 0070                                   ??_main 0063  
                                 ??_puts 0075                           login@spassword 0055  
                                 _ADRESH 001E                                   ?_login 004F  
                                 _ADRESL 009E                         ___awdiv@dividend 0074  
                           i2c_read@data 0073                                   i1l3660 1453  
                                 i1l3652 1436                                   i1l3662 1459  
                                 i1l3654 143C                                   i1l3664 145F  
                                 i1l3656 144B                                   i1l3666 1464  
                                 i1l3658 144D                                   i1l3668 1466  
                                 u330_20 1464                                   u330_21 1463  
                                 u326_20 143C                                   u326_21 143B  
                                 u327_20 144B                                   u327_21 144A  
                                 u328_20 1453                                   u328_21 1452  
                                 u329_20 145F                                   u329_21 145E  
                           _write_ds1307 122E                                   _TMR2IE 0461  
                                 _TMR2IF 0061                                   _TMR2ON 0092  
            ?_eeprom_at24c04_random_read 0070                                   _SSPADD 0093  
                                 _TRISE1 0449                                   _TRISE2 044A  
                                 _SSPBUF 0013                            login_menu@key 0052  
            __end_of_init_digital_keypad 1138                ?_eeprom_at24c04_str_write 0077  
                       __end_of_get_time 1641                                   ___bmul 11DA  
                _init_display_controller 16EC                                   ___wmul 12AE  
                              ??___awdiv 0076                                ??___awmod 0076  
                              ??___lldiv 0045                                ??___lwdiv 007A  
                              ??___lwmod 007A                         __end_of_init_i2c 1436  
                       __end_of_init_adc 1145                         __end_of_read_adc 11DA  
                         ??_download_log 0076                         ___awdiv@quotient 0078  
                        ___awmod@divisor 0072                            view_log@index 0033  
                        ___awmod@counter 0076                                   main@gr 00D5  
                      change_time@buffer 0054                                   _strcpy 128D  
                      change_time@t_done 0038                                   login@i 003D  
                                 login@j 005A                  __end_of_change_password 0E5F  
                                 saved_w 007E                         __end_of_view_log 0CC2  
                              ??_putchar 0072                                ??_strncmp 0076  
                              ??_strncpy 0077                  __end_of__initialization 003C  
                   __end_of_display_time 0949                          ??_i2c_rep_start 0072  
                    ___bmul@multiplicand 0072                           __pcstackCOMMON 0070  
                           __pidataBANK0 1138                             __pidataBANK1 1215  
             ?_eeprom_at24c04_byte_write 0073                            __end_of_login 1000  
                        login@reset_flag 004F                        __end_of_i2c_start 1156  
                      __end_of_i2c_write 116A             change_password@toggle_cursor 003B  
                      _i2c_wait_for_idle 118B                          change_time@wait 003A  
                                ??_login 0050                       ?_i2c_wait_for_idle 0070  
                             __pbssBANK0 0020                               __pbssBANK1 00B9  
                              ?_i2c_read 0070                                ?_i2c_stop 0070  
              ??_init_display_controller 0076                               _clcd_print 13A5  
                    ??_i2c_wait_for_idle 0072                               _clcd_putch 1200  
                             _clcd_write 124C                               __pmaintext 0040  
                        read_ds1307@addr 0074                            _log_car_event 1743  
                        read_ds1307@data 0075                             _clear_screen 11A5  
                                ?___bmul 0072                                  ?___wmul 0072  
                             __pintentry 0004                                  _ACKSTAT 048E  
          eeprom_at24c04_byte_write@data 0073                                  ?_strcpy 0072  
                                _T2CKPS0 0090                                  _T2CKPS1 0091  
            __end_of_read_digital_keypad 06D6                         ?_change_password 004F  
              __end_of_i2c_wait_for_idle 1198                             init_i2c@baud 004B  
                                _SSPCON2 0091                                ?_get_time 0070  
                             __stringtab 1000                               ??_i2c_read 0072  
                             ??_i2c_stop 0072                                ?_init_i2c 004B  
                   __end_of_download_log 0B82                                ?_init_adc 0070  
        read_digital_keypad@long_pressed 002B                                ?_read_adc 0072  
                      __end_of_clear_log 137A                           ?_log_car_event 0046  
                             _login$1107 0053                       change_password@key 0053  
                                ___awdiv 179D                                  ___awmod 1695  
                              ?_view_log 004F                                  ___lldiv 0949  
                                ___lwdiv 1565                                  ___lwmod 146E  
                       main@control_flag 00D8                                  __ptext1 0B82  
                                __ptext2 128D                                  __ptext3 064A  
                                __ptext4 11C8                                  __ptext5 09AF  
                                __ptext6 0E5F                                  __ptext7 11A5  
                                __ptext8 1743                                  __ptext9 14E2  
        __end_of_init_display_controller 1743                        __end_of_init_clcd 118B  
                 read_digital_keypad@key 0072                        __end_of_init_uart 1404  
                       ___awmod@dividend 0074                            ??_change_time 0050  
                         main@reset_flag 00D6                        __end_of_log_event 1521  
                             _login_menu 09AF                   display_dashboard@event 004F  
                 display_dashboard@speed 0050                                  _putchar 1175  
                                main@key 00D9                                  clrloop0 1146  
                             ??_get_time 0076                                  _strncmp 15A9  
                                _strncpy 1521                     end_of_initialization 003C  
                 change_password@new_pwd 00C4                               ??_init_i2c 004F  
                             ??_init_adc 0072                               ??_read_adc 0074  
                 change_password@pwd_pos 0031                              ?_clcd_print 0076  
                            ?_clcd_putch 004D                          ___lldiv@divisor 0072  
                            ?_clcd_write 0072                          ___lldiv@counter 004A  
                             ??_view_log 0050                             __pstringtext 0700  
                                strcpy@d 0077                             _display_time 08F3  
                          i2c_write@data 0072                            clcd_print@str 0076  
                    __end_of_change_time 064A                          ??_log_car_event 0049  
            ??_eeprom_at24c04_byte_write 0074                           __end_of___bmul 11ED  
                         __end_of___wmul 12D3                              view_log@add 005F  
                            view_log@key 0060                              view_log@log 0052  
                         __end_of_strcpy 12AE                      start_initialization 000F  
                            ?_login_menu 004F                                _i2c_start 114D  
                            __end_of_isr 146E                                _i2c_write 115F  
               _eeprom_at24c04_str_write 12F9                              putchar@data 0072  
                  __end_of_i2c_rep_start 1175                                 ??___bmul 0073  
                               ??___wmul 0076                               init_fetch0 11ED  
                       change_time@blink 0039                            ??_init_ds1307 0076  
                            __pdataBANK0 0066                              __pdataBANK1 00A0  
             read_digital_keypad@pre_key 0037                            ??_read_ds1307 0074  
                           _download_log 0A66                                 ??_strcpy 0075  
                          ??_init_config 007A                    change_time@reset_time 004F  
                          ??_init_timer2 0072                              __pbssCOMMON 007A  
                              ___latbits 0002                            __pcstackBANK0 0045  
                          __pcstackBANK1 00D1                              _change_time 0382  
                             ?_i2c_start 0070                               ?_i2c_write 0070  
              _eeprom_at24c04_byte_write 06D6                           change_time@key 0053  
                       ___lwdiv@dividend 0078                                _clear_log 134F  
                               ?___awdiv 0072                                 ?___awmod 0072  
                      _display_dashboard 1641                                 ?___lldiv 0072  
                               ?___lwdiv 0076                                _clock_reg 0026  
                               ?___lwmod 0048                       ?_display_dashboard 004F  
                              __pstrings 1000                      __end_of_init_ds1307 11C8  
                    read_adc@adc_reg_val 0074                      ??_display_dashboard 0051  
                    __end_of_read_ds1307 134F                         ___lwdiv@quotient 0046  
                               ?_putchar 0070                                _init_clcd 1180  
                    __end_of_init_config 14E2                                _init_uart 13D4  
                               ?_strncmp 0072                                 ?_strncpy 0072  
                              _log_event 14E2                            ?_write_ds1307 0073  
                    __end_of_init_timer2 11A5                 ?_init_display_controller 0070  
                      interrupt_function 0004                           ___wmul@product 0076  
           ??_eeprom_at24c04_random_read 0074                                clear_ram0 1145  
                           ??_clcd_print 0079                             ??_clcd_putch 007A  
                           ??_clcd_write 0073                               ?_clear_log 0070  
              __end_of_display_dashboard 1695                                main@F1249 00B6  
    eeprom_at24c04_byte_write@memory_loc 0076                            download_log@i 0055  
                   change_time@blink_pos 002D                              __stringbase 1012  
                      ___wmul@multiplier 0072                                main@event 00D2  
             change_password@blink_delay 002F                                main@speed 00D7  
                       view_log@position 005D                              ??_i2c_start 0072  
                     __end_of_clcd_print 13D4                              ??_i2c_write 0072  
                     __end_of_clcd_putch 1215                       __end_of_clcd_write 126C  
                             ?_init_clcd 0070                               ?_init_uart 004B  
                         ??_write_ds1307 0074                               ?_log_event 0070  
                    _init_digital_keypad 1132                                 _i2c_read 126C  
                               _i2c_stop 1156                 change_password@reset_pwd 004F  
                   ?_init_digital_keypad 0070                              _init_ds1307 11B6  
                            _event_count 0066                       __end_of__stringtab 1012  
                            _read_ds1307 1324                              _init_config 14A8  
                           ??_login_menu 0050                              _init_timer2 1198  
             ??_eeprom_at24c04_str_write 0079                          ___lwdiv@divisor 0076  
                        ___lwdiv@counter 0045                                 __ptext10 14A8  
                               __ptext11 13D4                                 __ptext20 0A66  
                               __ptext12 1198                                 __ptext21 12D3  
                               __ptext13 1404                                 __ptext30 0382  
                               __ptext22 1175                                 __ptext14 0949  
                               __ptext31 122E                                 __ptext23 137A  
                               __ptext15 11B6                                 __ptext40 1521  
                               __ptext32 15F4                                 __ptext24 11DA  
                               __ptext16 1132                                 __ptext41 15A9  
                               __ptext33 1324                                 __ptext25 1641  
                               __ptext17 1180                                 __ptext50 124C  
                               __ptext42 12F9                                 __ptext34 116A  
                               __ptext26 08F3                                 __ptext18 16EC  
                               __ptext51 1436                                 __ptext43 06D6  
                               __ptext35 126C                                 __ptext27 1695  
                               __ptext19 113E                                 __ptext44 115F  
                               __ptext36 12AE                                 __ptext28 179D  
                               __ptext45 1156                                 __ptext37 146E  
                               __ptext29 134F                                 __ptext46 114D  
                               __ptext38 1565             eeprom_at24c04_str_write@data 0077  
                               __ptext47 118B                                 __ptext39 0CC2  
                               __ptext48 1200                                 __ptext49 13A5  
                               _get_time 15F4                        login@attempts_rem 006A  
                             strcpy@dest 0072                                 _init_i2c 1404  
                               _init_adc 113E                                 _read_adc 11C8  
                read_digital_keypad@once 007A                    __end_of_log_car_event 179D  
                            ??_clear_log 0079                        ??_change_password 0050  
                          ?_clear_screen 0070                       __end_of_login_menu 0A66  
                               _view_log 0B82                    ??_init_digital_keypad 0072  
                              view_log@i 0061                                 isr@count 0029  
                    change_time@new_time 0020                             ?_change_time 004F  
                               init_ram0 11F1                              ??_init_clcd 0078  
                            ??_init_uart 004F                                 login@key 0059  
                            ??_log_event 007A                                 intlevel1 0000  
                          init_uart@baud 004B       __end_of_eeprom_at24c04_random_read 13A5  
             _eeprom_at24c04_random_read 137A                         ___lwmod@dividend 004A  
                       ___lldiv@dividend 0076                                strcpy@src 0073  
                              stringcode 100A                           ??_clear_screen 0076  
                              strncpy@cp 0079        __end_of_eeprom_at24c04_byte_write 06FD  
                   __end_of_write_ds1307 124C                      _read_digital_keypad 064A  
                       ___lldiv@quotient 0046                          ___lwmod@divisor 0048  
                   download_log@position 0051                          ___lwmod@counter 004C  
                               strncmp@l 0072                                 strncmp@n 0074  
                               strncmp@r 0073                                 stringtab 1000  
                               strncpy@d 0072                                 strncpy@n 0075  
                               strncpy@s 0073                              _return_time 006B  
                   ?_read_digital_keypad 0070                         write_ds1307@addr 0074  
                       write_ds1307@data 0073     eeprom_at24c04_random_read@memory_loc 0074  
                      download_log@index 0053                          download_log@add 0050  
                        download_log@log 0045  
